ARM GAS  C:\Users\Eih3\AppData\Local\Temp\ccBU6MkC.s 			page 1


   1              		.syntax unified
   2              		.cpu cortex-m3
   3              		.fpu softvfp
   4              		.eabi_attribute 20, 1
   5              		.eabi_attribute 21, 1
   6              		.eabi_attribute 23, 3
   7              		.eabi_attribute 24, 1
   8              		.eabi_attribute 25, 1
   9              		.eabi_attribute 26, 1
  10              		.eabi_attribute 30, 6
  11              		.eabi_attribute 34, 1
  12              		.eabi_attribute 18, 4
  13              		.thumb
  14              		.file	"UART_INT.c"
  15              		.text
  16              	.Ltext0:
  17              		.cfi_sections	.debug_frame
  18              		.section	.text.UART_RXISR,"ax",%progbits
  19              		.align	2
  20              		.global	UART_RXISR
  21              		.thumb
  22              		.thumb_func
  23              		.type	UART_RXISR, %function
  24              	UART_RXISR:
  25              	.LFB0:
  26              		.file 1 ".\\Generated_Source\\PSoC5\\UART_INT.c"
   1:.\Generated_Source\PSoC5/UART_INT.c **** /*******************************************************************************
   2:.\Generated_Source\PSoC5/UART_INT.c **** * File Name: UARTINT.c
   3:.\Generated_Source\PSoC5/UART_INT.c **** * Version 2.40
   4:.\Generated_Source\PSoC5/UART_INT.c **** *
   5:.\Generated_Source\PSoC5/UART_INT.c **** * Description:
   6:.\Generated_Source\PSoC5/UART_INT.c **** *  This file provides all Interrupt Service functionality of the UART component
   7:.\Generated_Source\PSoC5/UART_INT.c **** *
   8:.\Generated_Source\PSoC5/UART_INT.c **** * Note:
   9:.\Generated_Source\PSoC5/UART_INT.c **** *
  10:.\Generated_Source\PSoC5/UART_INT.c **** ********************************************************************************
  11:.\Generated_Source\PSoC5/UART_INT.c **** * Copyright 2008-2015, Cypress Semiconductor Corporation.  All rights reserved.
  12:.\Generated_Source\PSoC5/UART_INT.c **** * You may use this file only in accordance with the license, terms, conditions,
  13:.\Generated_Source\PSoC5/UART_INT.c **** * disclaimers, and limitations in the end user license agreement accompanying
  14:.\Generated_Source\PSoC5/UART_INT.c **** * the software package with which this file was provided.
  15:.\Generated_Source\PSoC5/UART_INT.c **** *******************************************************************************/
  16:.\Generated_Source\PSoC5/UART_INT.c **** 
  17:.\Generated_Source\PSoC5/UART_INT.c **** #include "UART.h"
  18:.\Generated_Source\PSoC5/UART_INT.c **** 
  19:.\Generated_Source\PSoC5/UART_INT.c **** 
  20:.\Generated_Source\PSoC5/UART_INT.c **** /***************************************
  21:.\Generated_Source\PSoC5/UART_INT.c **** * Custom Declarations
  22:.\Generated_Source\PSoC5/UART_INT.c **** ***************************************/
  23:.\Generated_Source\PSoC5/UART_INT.c **** /* `#START CUSTOM_DECLARATIONS` Place your declaration here */
  24:.\Generated_Source\PSoC5/UART_INT.c **** 
  25:.\Generated_Source\PSoC5/UART_INT.c **** /* `#END` */
  26:.\Generated_Source\PSoC5/UART_INT.c **** 
  27:.\Generated_Source\PSoC5/UART_INT.c **** #if (UART_RX_INTERRUPT_ENABLED && (UART_RX_ENABLED || UART_HD_ENABLED))
  28:.\Generated_Source\PSoC5/UART_INT.c ****     /*******************************************************************************
  29:.\Generated_Source\PSoC5/UART_INT.c ****     * Function Name: UART_RXISR
  30:.\Generated_Source\PSoC5/UART_INT.c ****     ********************************************************************************
  31:.\Generated_Source\PSoC5/UART_INT.c ****     *
ARM GAS  C:\Users\Eih3\AppData\Local\Temp\ccBU6MkC.s 			page 2


  32:.\Generated_Source\PSoC5/UART_INT.c ****     * Summary:
  33:.\Generated_Source\PSoC5/UART_INT.c ****     *  Interrupt Service Routine for RX portion of the UART
  34:.\Generated_Source\PSoC5/UART_INT.c ****     *
  35:.\Generated_Source\PSoC5/UART_INT.c ****     * Parameters:
  36:.\Generated_Source\PSoC5/UART_INT.c ****     *  None.
  37:.\Generated_Source\PSoC5/UART_INT.c ****     *
  38:.\Generated_Source\PSoC5/UART_INT.c ****     * Return:
  39:.\Generated_Source\PSoC5/UART_INT.c ****     *  None.
  40:.\Generated_Source\PSoC5/UART_INT.c ****     *
  41:.\Generated_Source\PSoC5/UART_INT.c ****     * Global Variables:
  42:.\Generated_Source\PSoC5/UART_INT.c ****     *  UART_rxBuffer - RAM buffer pointer for save received data.
  43:.\Generated_Source\PSoC5/UART_INT.c ****     *  UART_rxBufferWrite - cyclic index for write to rxBuffer,
  44:.\Generated_Source\PSoC5/UART_INT.c ****     *     increments after each byte saved to buffer.
  45:.\Generated_Source\PSoC5/UART_INT.c ****     *  UART_rxBufferRead - cyclic index for read from rxBuffer,
  46:.\Generated_Source\PSoC5/UART_INT.c ****     *     checked to detect overflow condition.
  47:.\Generated_Source\PSoC5/UART_INT.c ****     *  UART_rxBufferOverflow - software overflow flag. Set to one
  48:.\Generated_Source\PSoC5/UART_INT.c ****     *     when UART_rxBufferWrite index overtakes
  49:.\Generated_Source\PSoC5/UART_INT.c ****     *     UART_rxBufferRead index.
  50:.\Generated_Source\PSoC5/UART_INT.c ****     *  UART_rxBufferLoopDetect - additional variable to detect overflow.
  51:.\Generated_Source\PSoC5/UART_INT.c ****     *     Set to one when UART_rxBufferWrite is equal to
  52:.\Generated_Source\PSoC5/UART_INT.c ****     *    UART_rxBufferRead
  53:.\Generated_Source\PSoC5/UART_INT.c ****     *  UART_rxAddressMode - this variable contains the Address mode,
  54:.\Generated_Source\PSoC5/UART_INT.c ****     *     selected in customizer or set by UART_SetRxAddressMode() API.
  55:.\Generated_Source\PSoC5/UART_INT.c ****     *  UART_rxAddressDetected - set to 1 when correct address received,
  56:.\Generated_Source\PSoC5/UART_INT.c ****     *     and analysed to store following addressed data bytes to the buffer.
  57:.\Generated_Source\PSoC5/UART_INT.c ****     *     When not correct address received, set to 0 to skip following data bytes.
  58:.\Generated_Source\PSoC5/UART_INT.c ****     *
  59:.\Generated_Source\PSoC5/UART_INT.c ****     *******************************************************************************/
  60:.\Generated_Source\PSoC5/UART_INT.c ****     CY_ISR(UART_RXISR)
  61:.\Generated_Source\PSoC5/UART_INT.c ****     {
  27              		.loc 1 61 0
  28              		.cfi_startproc
  29              		@ args = 0, pretend = 0, frame = 8
  30              		@ frame_needed = 1, uses_anonymous_args = 0
  31              		@ link register save eliminated.
  32 0000 80B4     		push	{r7}
  33              		.cfi_def_cfa_offset 4
  34              		.cfi_offset 7, -4
  35 0002 83B0     		sub	sp, sp, #12
  36              		.cfi_def_cfa_offset 16
  37 0004 00AF     		add	r7, sp, #0
  38              		.cfi_def_cfa_register 7
  62:.\Generated_Source\PSoC5/UART_INT.c ****         uint8 readData;
  63:.\Generated_Source\PSoC5/UART_INT.c ****         uint8 increment_pointer = 0u;
  39              		.loc 1 63 0
  40 0006 0023     		movs	r3, #0
  41 0008 BB71     		strb	r3, [r7, #6]
  64:.\Generated_Source\PSoC5/UART_INT.c **** 
  65:.\Generated_Source\PSoC5/UART_INT.c ****     #if(CY_PSOC3)
  66:.\Generated_Source\PSoC5/UART_INT.c ****         uint8 int_en;
  67:.\Generated_Source\PSoC5/UART_INT.c ****     #endif /* (CY_PSOC3) */
  68:.\Generated_Source\PSoC5/UART_INT.c **** 
  69:.\Generated_Source\PSoC5/UART_INT.c ****         /* User code required at start of ISR */
  70:.\Generated_Source\PSoC5/UART_INT.c ****         /* `#START UART_RXISR_START` */
  71:.\Generated_Source\PSoC5/UART_INT.c **** 
  72:.\Generated_Source\PSoC5/UART_INT.c ****         /* `#END` */
  73:.\Generated_Source\PSoC5/UART_INT.c **** 
ARM GAS  C:\Users\Eih3\AppData\Local\Temp\ccBU6MkC.s 			page 3


  74:.\Generated_Source\PSoC5/UART_INT.c ****     #if(CY_PSOC3)   /* Make sure nested interrupt is enabled */
  75:.\Generated_Source\PSoC5/UART_INT.c ****         int_en = EA;
  76:.\Generated_Source\PSoC5/UART_INT.c ****         CyGlobalIntEnable;
  77:.\Generated_Source\PSoC5/UART_INT.c ****     #endif /* (CY_PSOC3) */
  78:.\Generated_Source\PSoC5/UART_INT.c **** 
  79:.\Generated_Source\PSoC5/UART_INT.c ****         readData = UART_RXSTATUS_REG;
  42              		.loc 1 79 0
  43 000a 394B     		ldr	r3, .L13
  44 000c 1B78     		ldrb	r3, [r3]
  45 000e FB71     		strb	r3, [r7, #7]
  80:.\Generated_Source\PSoC5/UART_INT.c **** 
  81:.\Generated_Source\PSoC5/UART_INT.c ****         if((readData & (UART_RX_STS_BREAK | UART_RX_STS_PAR_ERROR |
  82:.\Generated_Source\PSoC5/UART_INT.c ****                         UART_RX_STS_STOP_ERROR | UART_RX_STS_OVERRUN)) != 0u)
  46              		.loc 1 82 0
  47 0010 FB79     		ldrb	r3, [r7, #7]	@ zero_extendqisi2
  48 0012 03F01E03 		and	r3, r3, #30
  81:.\Generated_Source\PSoC5/UART_INT.c ****         if((readData & (UART_RX_STS_BREAK | UART_RX_STS_PAR_ERROR |
  49              		.loc 1 81 0
  50 0016 002B     		cmp	r3, #0
  51 0018 06D0     		beq	.L2
  83:.\Generated_Source\PSoC5/UART_INT.c ****         {
  84:.\Generated_Source\PSoC5/UART_INT.c ****             /* ERROR handling. */
  85:.\Generated_Source\PSoC5/UART_INT.c ****             UART_errorStatus = readData & ( UART_RX_STS_BREAK | 
  52              		.loc 1 85 0
  53 001a FB79     		ldrb	r3, [r7, #7]
  54 001c 03F01E03 		and	r3, r3, #30
  55 0020 DAB2     		uxtb	r2, r3
  56 0022 344B     		ldr	r3, .L13+4
  57 0024 1A70     		strb	r2, [r3]
  86:.\Generated_Source\PSoC5/UART_INT.c ****                                                         UART_RX_STS_PAR_ERROR | 
  87:.\Generated_Source\PSoC5/UART_INT.c ****                                                         UART_RX_STS_STOP_ERROR | 
  88:.\Generated_Source\PSoC5/UART_INT.c ****                                                         UART_RX_STS_OVERRUN);
  89:.\Generated_Source\PSoC5/UART_INT.c ****             /* `#START UART_RXISR_ERROR` */
  90:.\Generated_Source\PSoC5/UART_INT.c **** 
  91:.\Generated_Source\PSoC5/UART_INT.c ****             /* `#END` */
  92:.\Generated_Source\PSoC5/UART_INT.c ****         }
  93:.\Generated_Source\PSoC5/UART_INT.c **** 
  94:.\Generated_Source\PSoC5/UART_INT.c ****         while((readData & UART_RX_STS_FIFO_NOTEMPTY) != 0u)
  58              		.loc 1 94 0
  59 0026 59E0     		b	.L3
  60              	.L2:
  61 0028 58E0     		b	.L3
  62              	.L12:
  95:.\Generated_Source\PSoC5/UART_INT.c ****         {
  96:.\Generated_Source\PSoC5/UART_INT.c ****         #if (UART_RXHW_ADDRESS_ENABLED)
  97:.\Generated_Source\PSoC5/UART_INT.c ****             if(UART_rxAddressMode == (uint8)UART__B_UART__AM_SW_DETECT_TO_BUFFER)
  63              		.loc 1 97 0
  64 002a 334B     		ldr	r3, .L13+8
  65 002c 1B78     		ldrb	r3, [r3]
  66 002e DBB2     		uxtb	r3, r3
  67 0030 022B     		cmp	r3, #2
  68 0032 21D1     		bne	.L4
  98:.\Generated_Source\PSoC5/UART_INT.c ****             {
  99:.\Generated_Source\PSoC5/UART_INT.c ****                 if((readData & UART_RX_STS_MRKSPC) != 0u)
  69              		.loc 1 99 0
  70 0034 FB79     		ldrb	r3, [r7, #7]	@ zero_extendqisi2
  71 0036 03F00103 		and	r3, r3, #1
ARM GAS  C:\Users\Eih3\AppData\Local\Temp\ccBU6MkC.s 			page 4


  72 003a 002B     		cmp	r3, #0
  73 003c 0BD0     		beq	.L5
 100:.\Generated_Source\PSoC5/UART_INT.c ****                 {
 101:.\Generated_Source\PSoC5/UART_INT.c ****                     if ((readData & UART_RX_STS_ADDR_MATCH) != 0u)
  74              		.loc 1 101 0
  75 003e FB79     		ldrb	r3, [r7, #7]	@ zero_extendqisi2
  76 0040 03F04003 		and	r3, r3, #64
  77 0044 002B     		cmp	r3, #0
  78 0046 03D0     		beq	.L6
 102:.\Generated_Source\PSoC5/UART_INT.c ****                     {
 103:.\Generated_Source\PSoC5/UART_INT.c ****                         UART_rxAddressDetected = 1u;
  79              		.loc 1 103 0
  80 0048 2C4B     		ldr	r3, .L13+12
  81 004a 0122     		movs	r2, #1
  82 004c 1A70     		strb	r2, [r3]
  83 004e 02E0     		b	.L5
  84              	.L6:
 104:.\Generated_Source\PSoC5/UART_INT.c ****                     }
 105:.\Generated_Source\PSoC5/UART_INT.c ****                     else
 106:.\Generated_Source\PSoC5/UART_INT.c ****                     {
 107:.\Generated_Source\PSoC5/UART_INT.c ****                         UART_rxAddressDetected = 0u;
  85              		.loc 1 107 0
  86 0050 2A4B     		ldr	r3, .L13+12
  87 0052 0022     		movs	r2, #0
  88 0054 1A70     		strb	r2, [r3]
  89              	.L5:
 108:.\Generated_Source\PSoC5/UART_INT.c ****                     }
 109:.\Generated_Source\PSoC5/UART_INT.c ****                 }
 110:.\Generated_Source\PSoC5/UART_INT.c **** 
 111:.\Generated_Source\PSoC5/UART_INT.c ****                 readData = UART_RXDATA_REG;
  90              		.loc 1 111 0
  91 0056 2A4B     		ldr	r3, .L13+16
  92 0058 1B78     		ldrb	r3, [r3]
  93 005a FB71     		strb	r3, [r7, #7]
 112:.\Generated_Source\PSoC5/UART_INT.c ****                 if(UART_rxAddressDetected != 0u)
  94              		.loc 1 112 0
  95 005c 274B     		ldr	r3, .L13+12
  96 005e 1B78     		ldrb	r3, [r3]
  97 0060 DBB2     		uxtb	r3, r3
  98 0062 002B     		cmp	r3, #0
  99 0064 12D0     		beq	.L8
 113:.\Generated_Source\PSoC5/UART_INT.c ****                 {   /* Store only addressed data */
 114:.\Generated_Source\PSoC5/UART_INT.c ****                     UART_rxBuffer[UART_rxBufferWrite] = readData;
 100              		.loc 1 114 0
 101 0066 274B     		ldr	r3, .L13+20
 102 0068 1B78     		ldrb	r3, [r3]
 103 006a DBB2     		uxtb	r3, r3
 104 006c 264A     		ldr	r2, .L13+24
 105 006e F979     		ldrb	r1, [r7, #7]
 106 0070 D154     		strb	r1, [r2, r3]
 115:.\Generated_Source\PSoC5/UART_INT.c ****                     increment_pointer = 1u;
 107              		.loc 1 115 0
 108 0072 0123     		movs	r3, #1
 109 0074 BB71     		strb	r3, [r7, #6]
 110 0076 09E0     		b	.L8
 111              	.L4:
 116:.\Generated_Source\PSoC5/UART_INT.c ****                 }
ARM GAS  C:\Users\Eih3\AppData\Local\Temp\ccBU6MkC.s 			page 5


 117:.\Generated_Source\PSoC5/UART_INT.c ****             }
 118:.\Generated_Source\PSoC5/UART_INT.c ****             else /* Without software addressing */
 119:.\Generated_Source\PSoC5/UART_INT.c ****             {
 120:.\Generated_Source\PSoC5/UART_INT.c ****                 UART_rxBuffer[UART_rxBufferWrite] = UART_RXDATA_REG;
 112              		.loc 1 120 0
 113 0078 224B     		ldr	r3, .L13+20
 114 007a 1B78     		ldrb	r3, [r3]
 115 007c DBB2     		uxtb	r3, r3
 116 007e 204A     		ldr	r2, .L13+16
 117 0080 1278     		ldrb	r2, [r2]
 118 0082 D1B2     		uxtb	r1, r2
 119 0084 204A     		ldr	r2, .L13+24
 120 0086 D154     		strb	r1, [r2, r3]
 121:.\Generated_Source\PSoC5/UART_INT.c ****                 increment_pointer = 1u;
 121              		.loc 1 121 0
 122 0088 0123     		movs	r3, #1
 123 008a BB71     		strb	r3, [r7, #6]
 124              	.L8:
 122:.\Generated_Source\PSoC5/UART_INT.c ****             }
 123:.\Generated_Source\PSoC5/UART_INT.c ****         #else  /* Without addressing */
 124:.\Generated_Source\PSoC5/UART_INT.c ****             UART_rxBuffer[UART_rxBufferWrite] = UART_RXDATA_REG;
 125:.\Generated_Source\PSoC5/UART_INT.c ****             increment_pointer = 1u;
 126:.\Generated_Source\PSoC5/UART_INT.c ****         #endif /* (UART_RXHW_ADDRESS_ENABLED) */
 127:.\Generated_Source\PSoC5/UART_INT.c **** 
 128:.\Generated_Source\PSoC5/UART_INT.c ****             /* Do not increment buffer pointer when skip not addressed data */
 129:.\Generated_Source\PSoC5/UART_INT.c ****             if(increment_pointer != 0u)
 125              		.loc 1 129 0
 126 008c BB79     		ldrb	r3, [r7, #6]	@ zero_extendqisi2
 127 008e 002B     		cmp	r3, #0
 128 0090 21D0     		beq	.L9
 130:.\Generated_Source\PSoC5/UART_INT.c ****             {
 131:.\Generated_Source\PSoC5/UART_INT.c ****                 if(UART_rxBufferLoopDetect != 0u)
 129              		.loc 1 131 0
 130 0092 1E4B     		ldr	r3, .L13+28
 131 0094 1B78     		ldrb	r3, [r3]
 132 0096 DBB2     		uxtb	r3, r3
 133 0098 002B     		cmp	r3, #0
 134 009a 02D0     		beq	.L10
 132:.\Generated_Source\PSoC5/UART_INT.c ****                 {   /* Set Software Buffer status Overflow */
 133:.\Generated_Source\PSoC5/UART_INT.c ****                     UART_rxBufferOverflow = 1u;
 135              		.loc 1 133 0
 136 009c 1C4B     		ldr	r3, .L13+32
 137 009e 0122     		movs	r2, #1
 138 00a0 1A70     		strb	r2, [r3]
 139              	.L10:
 134:.\Generated_Source\PSoC5/UART_INT.c ****                 }
 135:.\Generated_Source\PSoC5/UART_INT.c ****                 /* Set next pointer. */
 136:.\Generated_Source\PSoC5/UART_INT.c ****                 UART_rxBufferWrite++;
 140              		.loc 1 136 0
 141 00a2 184B     		ldr	r3, .L13+20
 142 00a4 1B78     		ldrb	r3, [r3]
 143 00a6 DBB2     		uxtb	r3, r3
 144 00a8 0133     		adds	r3, r3, #1
 145 00aa DAB2     		uxtb	r2, r3
 146 00ac 154B     		ldr	r3, .L13+20
 147 00ae 1A70     		strb	r2, [r3]
 137:.\Generated_Source\PSoC5/UART_INT.c **** 
ARM GAS  C:\Users\Eih3\AppData\Local\Temp\ccBU6MkC.s 			page 6


 138:.\Generated_Source\PSoC5/UART_INT.c ****                 /* Check pointer for a loop condition */
 139:.\Generated_Source\PSoC5/UART_INT.c ****                 if(UART_rxBufferWrite >= UART_RX_BUFFER_SIZE)
 148              		.loc 1 139 0
 149 00b0 144B     		ldr	r3, .L13+20
 150 00b2 1B78     		ldrb	r3, [r3]
 151 00b4 DBB2     		uxtb	r3, r3
 152 00b6 072B     		cmp	r3, #7
 153 00b8 02D9     		bls	.L11
 140:.\Generated_Source\PSoC5/UART_INT.c ****                 {
 141:.\Generated_Source\PSoC5/UART_INT.c ****                     UART_rxBufferWrite = 0u;
 154              		.loc 1 141 0
 155 00ba 124B     		ldr	r3, .L13+20
 156 00bc 0022     		movs	r2, #0
 157 00be 1A70     		strb	r2, [r3]
 158              	.L11:
 142:.\Generated_Source\PSoC5/UART_INT.c ****                 }
 143:.\Generated_Source\PSoC5/UART_INT.c **** 
 144:.\Generated_Source\PSoC5/UART_INT.c ****                 /* Detect pre-overload condition and set flag */
 145:.\Generated_Source\PSoC5/UART_INT.c ****                 if(UART_rxBufferWrite == UART_rxBufferRead)
 159              		.loc 1 145 0
 160 00c0 104B     		ldr	r3, .L13+20
 161 00c2 1B78     		ldrb	r3, [r3]
 162 00c4 DAB2     		uxtb	r2, r3
 163 00c6 134B     		ldr	r3, .L13+36
 164 00c8 1B78     		ldrb	r3, [r3]
 165 00ca DBB2     		uxtb	r3, r3
 166 00cc 9A42     		cmp	r2, r3
 167 00ce 02D1     		bne	.L9
 146:.\Generated_Source\PSoC5/UART_INT.c ****                 {
 147:.\Generated_Source\PSoC5/UART_INT.c ****                     UART_rxBufferLoopDetect = 1u;
 168              		.loc 1 147 0
 169 00d0 0E4B     		ldr	r3, .L13+28
 170 00d2 0122     		movs	r2, #1
 171 00d4 1A70     		strb	r2, [r3]
 172              	.L9:
 148:.\Generated_Source\PSoC5/UART_INT.c ****                     /* When Hardware Flow Control selected */
 149:.\Generated_Source\PSoC5/UART_INT.c ****                     #if (UART_FLOW_CONTROL != 0u)
 150:.\Generated_Source\PSoC5/UART_INT.c ****                         /* Disable RX interrupt mask, it is enabled when user read data from the bu
 151:.\Generated_Source\PSoC5/UART_INT.c ****                         UART_RXSTATUS_MASK_REG  &= (uint8)~UART_RX_STS_FIFO_NOTEMPTY;
 152:.\Generated_Source\PSoC5/UART_INT.c ****                         CyIntClearPending(UART_RX_VECT_NUM);
 153:.\Generated_Source\PSoC5/UART_INT.c ****                         break; /* Break the reading of the FIFO loop, leave the data there for gene
 154:.\Generated_Source\PSoC5/UART_INT.c ****                     #endif /* (UART_FLOW_CONTROL != 0u) */
 155:.\Generated_Source\PSoC5/UART_INT.c ****                 }
 156:.\Generated_Source\PSoC5/UART_INT.c ****             }
 157:.\Generated_Source\PSoC5/UART_INT.c **** 
 158:.\Generated_Source\PSoC5/UART_INT.c ****             /* Read status to decide whether read more bytes */
 159:.\Generated_Source\PSoC5/UART_INT.c ****             readData = UART_RXSTATUS_REG;
 173              		.loc 1 159 0
 174 00d6 064B     		ldr	r3, .L13
 175 00d8 1B78     		ldrb	r3, [r3]
 176 00da FB71     		strb	r3, [r7, #7]
 177              	.L3:
  94:.\Generated_Source\PSoC5/UART_INT.c ****         while((readData & UART_RX_STS_FIFO_NOTEMPTY) != 0u)
 178              		.loc 1 94 0 discriminator 1
 179 00dc FB79     		ldrb	r3, [r7, #7]	@ zero_extendqisi2
 180 00de 03F02003 		and	r3, r3, #32
 181 00e2 002B     		cmp	r3, #0
ARM GAS  C:\Users\Eih3\AppData\Local\Temp\ccBU6MkC.s 			page 7


 182 00e4 A1D1     		bne	.L12
 160:.\Generated_Source\PSoC5/UART_INT.c ****         }
 161:.\Generated_Source\PSoC5/UART_INT.c **** 
 162:.\Generated_Source\PSoC5/UART_INT.c ****         /* User code required at end of ISR (Optional) */
 163:.\Generated_Source\PSoC5/UART_INT.c ****         /* `#START UART_RXISR_END` */
 164:.\Generated_Source\PSoC5/UART_INT.c **** 
 165:.\Generated_Source\PSoC5/UART_INT.c ****         /* `#END` */
 166:.\Generated_Source\PSoC5/UART_INT.c **** 
 167:.\Generated_Source\PSoC5/UART_INT.c ****     #if(CY_PSOC3)
 168:.\Generated_Source\PSoC5/UART_INT.c ****         EA = int_en;
 169:.\Generated_Source\PSoC5/UART_INT.c ****     #endif /* (CY_PSOC3) */
 170:.\Generated_Source\PSoC5/UART_INT.c ****     }
 183              		.loc 1 170 0
 184 00e6 0C37     		adds	r7, r7, #12
 185 00e8 BD46     		mov	sp, r7
 186              		@ sp needed
 187 00ea 5DF8047B 		ldr	r7, [sp], #4
 188 00ee 7047     		bx	lr
 189              	.L14:
 190              		.align	2
 191              	.L13:
 192 00f0 64650040 		.word	1073767780
 193 00f4 00000000 		.word	UART_errorStatus
 194 00f8 00000000 		.word	UART_rxAddressMode
 195 00fc 00000000 		.word	UART_rxAddressDetected
 196 0100 47640040 		.word	1073767495
 197 0104 00000000 		.word	UART_rxBufferWrite
 198 0108 00000000 		.word	UART_rxBuffer
 199 010c 00000000 		.word	UART_rxBufferLoopDetect
 200 0110 00000000 		.word	UART_rxBufferOverflow
 201 0114 00000000 		.word	UART_rxBufferRead
 202              		.cfi_endproc
 203              	.LFE0:
 204              		.size	UART_RXISR, .-UART_RXISR
 205              		.section	.text.UART_TXISR,"ax",%progbits
 206              		.align	2
 207              		.global	UART_TXISR
 208              		.thumb
 209              		.thumb_func
 210              		.type	UART_TXISR, %function
 211              	UART_TXISR:
 212              	.LFB1:
 171:.\Generated_Source\PSoC5/UART_INT.c **** 
 172:.\Generated_Source\PSoC5/UART_INT.c **** #endif /* (UART_RX_INTERRUPT_ENABLED && (UART_RX_ENABLED || UART_HD_ENABLED)) */
 173:.\Generated_Source\PSoC5/UART_INT.c **** 
 174:.\Generated_Source\PSoC5/UART_INT.c **** 
 175:.\Generated_Source\PSoC5/UART_INT.c **** #if (UART_TX_INTERRUPT_ENABLED && UART_TX_ENABLED)
 176:.\Generated_Source\PSoC5/UART_INT.c ****     /*******************************************************************************
 177:.\Generated_Source\PSoC5/UART_INT.c ****     * Function Name: UART_TXISR
 178:.\Generated_Source\PSoC5/UART_INT.c ****     ********************************************************************************
 179:.\Generated_Source\PSoC5/UART_INT.c ****     *
 180:.\Generated_Source\PSoC5/UART_INT.c ****     * Summary:
 181:.\Generated_Source\PSoC5/UART_INT.c ****     * Interrupt Service Routine for the TX portion of the UART
 182:.\Generated_Source\PSoC5/UART_INT.c ****     *
 183:.\Generated_Source\PSoC5/UART_INT.c ****     * Parameters:
 184:.\Generated_Source\PSoC5/UART_INT.c ****     *  None.
 185:.\Generated_Source\PSoC5/UART_INT.c ****     *
ARM GAS  C:\Users\Eih3\AppData\Local\Temp\ccBU6MkC.s 			page 8


 186:.\Generated_Source\PSoC5/UART_INT.c ****     * Return:
 187:.\Generated_Source\PSoC5/UART_INT.c ****     *  None.
 188:.\Generated_Source\PSoC5/UART_INT.c ****     *
 189:.\Generated_Source\PSoC5/UART_INT.c ****     * Global Variables:
 190:.\Generated_Source\PSoC5/UART_INT.c ****     *  UART_txBuffer - RAM buffer pointer for transmit data from.
 191:.\Generated_Source\PSoC5/UART_INT.c ****     *  UART_txBufferRead - cyclic index for read and transmit data
 192:.\Generated_Source\PSoC5/UART_INT.c ****     *     from txBuffer, increments after each transmitted byte.
 193:.\Generated_Source\PSoC5/UART_INT.c ****     *  UART_rxBufferWrite - cyclic index for write to txBuffer,
 194:.\Generated_Source\PSoC5/UART_INT.c ****     *     checked to detect available for transmission bytes.
 195:.\Generated_Source\PSoC5/UART_INT.c ****     *
 196:.\Generated_Source\PSoC5/UART_INT.c ****     *******************************************************************************/
 197:.\Generated_Source\PSoC5/UART_INT.c ****     CY_ISR(UART_TXISR)
 198:.\Generated_Source\PSoC5/UART_INT.c ****     {
 213              		.loc 1 198 0
 214              		.cfi_startproc
 215              		@ args = 0, pretend = 0, frame = 0
 216              		@ frame_needed = 1, uses_anonymous_args = 0
 217              		@ link register save eliminated.
 218 0000 80B4     		push	{r7}
 219              		.cfi_def_cfa_offset 4
 220              		.cfi_offset 7, -4
 221 0002 00AF     		add	r7, sp, #0
 222              		.cfi_def_cfa_register 7
 199:.\Generated_Source\PSoC5/UART_INT.c ****     #if(CY_PSOC3)
 200:.\Generated_Source\PSoC5/UART_INT.c ****         uint8 int_en;
 201:.\Generated_Source\PSoC5/UART_INT.c ****     #endif /* (CY_PSOC3) */
 202:.\Generated_Source\PSoC5/UART_INT.c **** 
 203:.\Generated_Source\PSoC5/UART_INT.c ****         /* User code required at start of ISR */
 204:.\Generated_Source\PSoC5/UART_INT.c ****         /* `#START UART_TXISR_START` */
 205:.\Generated_Source\PSoC5/UART_INT.c **** 
 206:.\Generated_Source\PSoC5/UART_INT.c ****         /* `#END` */
 207:.\Generated_Source\PSoC5/UART_INT.c **** 
 208:.\Generated_Source\PSoC5/UART_INT.c ****     #if(CY_PSOC3)   /* Make sure nested interrupt is enabled */
 209:.\Generated_Source\PSoC5/UART_INT.c ****         int_en = EA;
 210:.\Generated_Source\PSoC5/UART_INT.c ****         CyGlobalIntEnable;
 211:.\Generated_Source\PSoC5/UART_INT.c ****     #endif /* (CY_PSOC3) */
 212:.\Generated_Source\PSoC5/UART_INT.c **** 
 213:.\Generated_Source\PSoC5/UART_INT.c ****         while((UART_txBufferRead != UART_txBufferWrite) &&
 223              		.loc 1 213 0
 224 0004 16E0     		b	.L16
 225              	.L19:
 214:.\Generated_Source\PSoC5/UART_INT.c ****              ((UART_TXSTATUS_REG & UART_TX_STS_FIFO_FULL) == 0u))
 215:.\Generated_Source\PSoC5/UART_INT.c ****         {
 216:.\Generated_Source\PSoC5/UART_INT.c ****             /* Check pointer wrap around */
 217:.\Generated_Source\PSoC5/UART_INT.c ****             if(UART_txBufferRead >= UART_TX_BUFFER_SIZE)
 226              		.loc 1 217 0
 227 0006 144B     		ldr	r3, .L20
 228 0008 1B78     		ldrb	r3, [r3]
 229 000a DBB2     		uxtb	r3, r3
 230 000c 072B     		cmp	r3, #7
 231 000e 02D9     		bls	.L17
 218:.\Generated_Source\PSoC5/UART_INT.c ****             {
 219:.\Generated_Source\PSoC5/UART_INT.c ****                 UART_txBufferRead = 0u;
 232              		.loc 1 219 0
 233 0010 114B     		ldr	r3, .L20
 234 0012 0022     		movs	r2, #0
 235 0014 1A70     		strb	r2, [r3]
ARM GAS  C:\Users\Eih3\AppData\Local\Temp\ccBU6MkC.s 			page 9


 236              	.L17:
 220:.\Generated_Source\PSoC5/UART_INT.c ****             }
 221:.\Generated_Source\PSoC5/UART_INT.c **** 
 222:.\Generated_Source\PSoC5/UART_INT.c ****             UART_TXDATA_REG = UART_txBuffer[UART_txBufferRead];
 237              		.loc 1 222 0
 238 0016 114B     		ldr	r3, .L20+4
 239 0018 0F4A     		ldr	r2, .L20
 240 001a 1278     		ldrb	r2, [r2]
 241 001c D2B2     		uxtb	r2, r2
 242 001e 1049     		ldr	r1, .L20+8
 243 0020 8A5C     		ldrb	r2, [r1, r2]
 244 0022 D2B2     		uxtb	r2, r2
 245 0024 1A70     		strb	r2, [r3]
 223:.\Generated_Source\PSoC5/UART_INT.c **** 
 224:.\Generated_Source\PSoC5/UART_INT.c ****             /* Set next pointer */
 225:.\Generated_Source\PSoC5/UART_INT.c ****             UART_txBufferRead++;
 246              		.loc 1 225 0
 247 0026 0C4B     		ldr	r3, .L20
 248 0028 1B78     		ldrb	r3, [r3]
 249 002a DBB2     		uxtb	r3, r3
 250 002c 0133     		adds	r3, r3, #1
 251 002e DAB2     		uxtb	r2, r3
 252 0030 094B     		ldr	r3, .L20
 253 0032 1A70     		strb	r2, [r3]
 254              	.L16:
 213:.\Generated_Source\PSoC5/UART_INT.c ****         while((UART_txBufferRead != UART_txBufferWrite) &&
 255              		.loc 1 213 0 discriminator 1
 256 0034 084B     		ldr	r3, .L20
 257 0036 1B78     		ldrb	r3, [r3]
 258 0038 DAB2     		uxtb	r2, r3
 259 003a 0A4B     		ldr	r3, .L20+12
 260 003c 1B78     		ldrb	r3, [r3]	@ zero_extendqisi2
 261 003e 9A42     		cmp	r2, r3
 262 0040 06D0     		beq	.L15
 214:.\Generated_Source\PSoC5/UART_INT.c ****              ((UART_TXSTATUS_REG & UART_TX_STS_FIFO_FULL) == 0u))
 263              		.loc 1 214 0 discriminator 2
 264 0042 094B     		ldr	r3, .L20+16
 265 0044 1B78     		ldrb	r3, [r3]
 266 0046 DBB2     		uxtb	r3, r3
 267 0048 03F00403 		and	r3, r3, #4
 213:.\Generated_Source\PSoC5/UART_INT.c ****         while((UART_txBufferRead != UART_txBufferWrite) &&
 268              		.loc 1 213 0 discriminator 2
 269 004c 002B     		cmp	r3, #0
 270 004e DAD0     		beq	.L19
 271              	.L15:
 226:.\Generated_Source\PSoC5/UART_INT.c ****         }
 227:.\Generated_Source\PSoC5/UART_INT.c **** 
 228:.\Generated_Source\PSoC5/UART_INT.c ****         /* User code required at end of ISR (Optional) */
 229:.\Generated_Source\PSoC5/UART_INT.c ****         /* `#START UART_TXISR_END` */
 230:.\Generated_Source\PSoC5/UART_INT.c **** 
 231:.\Generated_Source\PSoC5/UART_INT.c ****         /* `#END` */
 232:.\Generated_Source\PSoC5/UART_INT.c **** 
 233:.\Generated_Source\PSoC5/UART_INT.c ****     #if(CY_PSOC3)
 234:.\Generated_Source\PSoC5/UART_INT.c ****         EA = int_en;
 235:.\Generated_Source\PSoC5/UART_INT.c ****     #endif /* (CY_PSOC3) */
 236:.\Generated_Source\PSoC5/UART_INT.c ****     }
 272              		.loc 1 236 0
ARM GAS  C:\Users\Eih3\AppData\Local\Temp\ccBU6MkC.s 			page 10


 273 0050 BD46     		mov	sp, r7
 274              		@ sp needed
 275 0052 5DF8047B 		ldr	r7, [sp], #4
 276 0056 7047     		bx	lr
 277              	.L21:
 278              		.align	2
 279              	.L20:
 280 0058 00000000 		.word	UART_txBufferRead
 281 005c 42640040 		.word	1073767490
 282 0060 00000000 		.word	UART_txBuffer
 283 0064 00000000 		.word	UART_txBufferWrite
 284 0068 65640040 		.word	1073767525
 285              		.cfi_endproc
 286              	.LFE1:
 287              		.size	UART_TXISR, .-UART_TXISR
 288              		.text
 289              	.Letext0:
 290              		.file 2 ".\\Generated_Source\\PSoC5\\cytypes.h"
 291              		.file 3 ".\\Generated_Source\\PSoC5\\UART.h"