ARM GAS  C:\Users\Eih3\AppData\Local\Temp\ccIWKq4j.s 			page 1


   1              		.syntax unified
   2              		.cpu cortex-m3
   3              		.fpu softvfp
   4              		.eabi_attribute 20, 1
   5              		.eabi_attribute 21, 1
   6              		.eabi_attribute 23, 3
   7              		.eabi_attribute 24, 1
   8              		.eabi_attribute 25, 1
   9              		.eabi_attribute 26, 1
  10              		.eabi_attribute 30, 4
  11              		.eabi_attribute 34, 1
  12              		.eabi_attribute 18, 4
  13              		.thumb
  14              		.file	"Application.c"
  15              		.text
  16              	.Ltext0:
  17              		.cfi_sections	.debug_frame
  18              		.section	.text.Configurations,"ax",%progbits
  19              		.align	1
  20              		.global	Configurations
  21              		.thumb
  22              		.thumb_func
  23              		.type	Configurations, %function
  24              	Configurations:
  25              	.LFB57:
  26              		.file 1 ".\\Application.c"
   1:.\Application.c **** /***************************************************************
   2:.\Application.c **** * Nom Fichier: Application.c
   3:.\Application.c **** *
   4:.\Application.c **** * Fonctions: - Lecture EEPROM           
   5:.\Application.c **** *            - Ecriture EEPROM          
   6:.\Application.c **** *
   7:.\Application.c **** ****************************************************************
   8:.\Application.c **** * CARNUS 2015, Escamez Michel - Soler Donovan - Verdier Jordan
   9:.\Application.c **** ***************************************************************/
  10:.\Application.c **** 
  11:.\Application.c **** /**** Déclarations & Directives ****/
  12:.\Application.c **** #include <Application.h>
  13:.\Application.c **** 
  14:.\Application.c **** /**** Déclarations Variables ****/
  15:.\Application.c **** uint8 i;
  16:.\Application.c **** uint8 adresse[2] = {0x00};
  17:.\Application.c **** uint8 dataBuffer[BUFFER_SIZE] = {0x00};
  18:.\Application.c **** uint8 writeData[BUFFER_SIZE];
  19:.\Application.c **** uint8 readData[BUFFER_SIZE];
  20:.\Application.c **** uint8 RxData = 0x20;
  21:.\Application.c **** uint8 ConfigEnd; //La configuration du module est finie
  22:.\Application.c **** uint8 Linked; //Client connecté ? 1u oui; 0u non
  23:.\Application.c **** 
  24:.\Application.c **** /**** Fonction de base de l'appication ****/
  25:.\Application.c **** void Application()
  26:.\Application.c **** {
  27:.\Application.c ****     Initialisations();
  28:.\Application.c ****     Configurations();     
  29:.\Application.c **** 
  30:.\Application.c ****     //fonctionTest();
  31:.\Application.c ****     
ARM GAS  C:\Users\Eih3\AppData\Local\Temp\ccIWKq4j.s 			page 2


  32:.\Application.c ****     LCD_ClearDisplay();
  33:.\Application.c **** 
  34:.\Application.c ****     i=33;
  35:.\Application.c ****         
  36:.\Application.c ****     for(;;)
  37:.\Application.c ****     { 
  38:.\Application.c ****         if (!SW2_Read()) LCD_ClearDisplay();
  39:.\Application.c ****         if (!SW3_Read()) UART_PutChar(0x40); 
  40:.\Application.c **** 
  41:.\Application.c ****         if (Linked) wifiTest();
  42:.\Application.c ****         else { LCD_Position(0, 0); LCD_PrintString("Attente de STA"); }
  43:.\Application.c ****         
  44:.\Application.c ****         CyDelay(1000u);        
  45:.\Application.c ****     }
  46:.\Application.c **** }
  47:.\Application.c **** 
  48:.\Application.c **** /**** Fonction Configurations ****/
  49:.\Application.c **** void Configurations()
  50:.\Application.c **** {
  27              		.loc 1 50 0
  28              		.cfi_startproc
  29              		@ args = 0, pretend = 0, frame = 0
  30              		@ frame_needed = 0, uses_anonymous_args = 0
  31 0000 08B5     		push	{r3, lr}
  32              		.cfi_def_cfa_offset 8
  33              		.cfi_offset 3, -8
  34              		.cfi_offset 14, -4
  51:.\Application.c ****     LCD_PrintString("   Module HF"); 
  35              		.loc 1 51 0
  36 0002 0848     		ldr	r0, .L2
  37 0004 FFF7FEFF 		bl	LCD_PrintString
  38              	.LVL0:
  52:.\Application.c ****     LCD_Position(1u, 1u);
  39              		.loc 1 52 0
  40 0008 0120     		movs	r0, #1
  41 000a 0146     		mov	r1, r0
  42 000c FFF7FEFF 		bl	LCD_Position
  43              	.LVL1:
  53:.\Application.c ****     LCD_PrintString("Configuration"); 
  44              		.loc 1 53 0
  45 0010 0548     		ldr	r0, .L2+4
  46 0012 FFF7FEFF 		bl	LCD_PrintString
  47              	.LVL2:
  54:.\Application.c ****     
  55:.\Application.c ****     ConfigWifi();
  48              		.loc 1 55 0
  49 0016 FFF7FEFF 		bl	ConfigWifi
  50              	.LVL3:
  56:.\Application.c ****     
  57:.\Application.c ****     UART_ClearRxBuffer();
  58:.\Application.c **** }
  51              		.loc 1 58 0
  52 001a BDE80840 		pop	{r3, lr}
  57:.\Application.c ****     UART_ClearRxBuffer();
  53              		.loc 1 57 0
  54 001e FFF7FEBF 		b	UART_ClearRxBuffer
  55              	.LVL4:
ARM GAS  C:\Users\Eih3\AppData\Local\Temp\ccIWKq4j.s 			page 3


  56              	.L3:
  57 0022 00BF     		.align	2
  58              	.L2:
  59 0024 00000000 		.word	.LC0
  60 0028 0D000000 		.word	.LC1
  61              		.cfi_endproc
  62              	.LFE57:
  63              		.size	Configurations, .-Configurations
  64              		.section	.text.Init_LCD,"ax",%progbits
  65              		.align	1
  66              		.global	Init_LCD
  67              		.thumb
  68              		.thumb_func
  69              		.type	Init_LCD, %function
  70              	Init_LCD:
  71              	.LFB59:
  59:.\Application.c **** 
  60:.\Application.c **** /**** Initialisations ****/
  61:.\Application.c **** void Initialisations()
  62:.\Application.c **** {   
  63:.\Application.c ****     Init_Interruptions();
  64:.\Application.c ****     
  65:.\Application.c ****     Init_I2C();
  66:.\Application.c ****     
  67:.\Application.c ****     Init_UART();
  68:.\Application.c ****     
  69:.\Application.c ****     Init_LCD();
  70:.\Application.c **** }
  71:.\Application.c **** 
  72:.\Application.c **** /**** Initialisation LCD ****/
  73:.\Application.c **** void Init_LCD()
  74:.\Application.c **** {
  72              		.loc 1 74 0
  73              		.cfi_startproc
  74              		@ args = 0, pretend = 0, frame = 0
  75              		@ frame_needed = 0, uses_anonymous_args = 0
  76 0000 08B5     		push	{r3, lr}
  77              		.cfi_def_cfa_offset 8
  78              		.cfi_offset 3, -8
  79              		.cfi_offset 14, -4
  75:.\Application.c ****     LCD_Start();
  80              		.loc 1 75 0
  81 0002 FFF7FEFF 		bl	LCD_Start
  82              	.LVL5:
  76:.\Application.c ****     LCD_PrintString("   Module AP"); 
  83              		.loc 1 76 0
  84 0006 0948     		ldr	r0, .L5
  85 0008 FFF7FEFF 		bl	LCD_PrintString
  86              	.LVL6:
  77:.\Application.c ****     LCD_Position(1u, 1u);
  87              		.loc 1 77 0
  88 000c 0120     		movs	r0, #1
  89 000e 0146     		mov	r1, r0
  90 0010 FFF7FEFF 		bl	LCD_Position
  91              	.LVL7:
  78:.\Application.c ****     LCD_PrintString("Initialisation");
  92              		.loc 1 78 0
ARM GAS  C:\Users\Eih3\AppData\Local\Temp\ccIWKq4j.s 			page 4


  93 0014 0648     		ldr	r0, .L5+4
  94 0016 FFF7FEFF 		bl	LCD_PrintString
  95              	.LVL8:
  79:.\Application.c ****     CyDelay(1000);
  96              		.loc 1 79 0
  97 001a 4FF47A70 		mov	r0, #1000
  98 001e FFF7FEFF 		bl	CyDelay
  99              	.LVL9:
  80:.\Application.c ****     LCD_ClearDisplay();  
  81:.\Application.c **** }
 100              		.loc 1 81 0
 101 0022 BDE80840 		pop	{r3, lr}
  80:.\Application.c ****     LCD_ClearDisplay();  
 102              		.loc 1 80 0
 103 0026 0120     		movs	r0, #1
 104 0028 FFF7FEBF 		b	LCD_WriteControl
 105              	.LVL10:
 106              	.L6:
 107              		.align	2
 108              	.L5:
 109 002c 1B000000 		.word	.LC2
 110 0030 28000000 		.word	.LC3
 111              		.cfi_endproc
 112              	.LFE59:
 113              		.size	Init_LCD, .-Init_LCD
 114              		.section	.text.Init_UART,"ax",%progbits
 115              		.align	1
 116              		.global	Init_UART
 117              		.thumb
 118              		.thumb_func
 119              		.type	Init_UART, %function
 120              	Init_UART:
 121              	.LFB60:
  82:.\Application.c **** 
  83:.\Application.c **** /**** Initialisation UART ****/
  84:.\Application.c **** void Init_UART()
  85:.\Application.c **** {
 122              		.loc 1 85 0
 123              		.cfi_startproc
 124              		@ args = 0, pretend = 0, frame = 0
 125              		@ frame_needed = 0, uses_anonymous_args = 0
 126 0000 08B5     		push	{r3, lr}
 127              		.cfi_def_cfa_offset 8
 128              		.cfi_offset 3, -8
 129              		.cfi_offset 14, -4
  86:.\Application.c ****     UART_Start();     
 130              		.loc 1 86 0
 131 0002 FFF7FEFF 		bl	UART_Start
 132              	.LVL11:
  87:.\Application.c ****     UART_ClearRxBuffer();   
  88:.\Application.c **** }
 133              		.loc 1 88 0
 134 0006 BDE80840 		pop	{r3, lr}
  87:.\Application.c ****     UART_ClearRxBuffer();   
 135              		.loc 1 87 0
 136 000a FFF7FEBF 		b	UART_ClearRxBuffer
 137              	.LVL12:
ARM GAS  C:\Users\Eih3\AppData\Local\Temp\ccIWKq4j.s 			page 5


 138              		.cfi_endproc
 139              	.LFE60:
 140              		.size	Init_UART, .-Init_UART
 141              		.section	.text.Init_I2C,"ax",%progbits
 142              		.align	1
 143              		.global	Init_I2C
 144              		.thumb
 145              		.thumb_func
 146              		.type	Init_I2C, %function
 147              	Init_I2C:
 148              	.LFB61:
  89:.\Application.c **** 
  90:.\Application.c **** /**** Initialisation I2C ****/
  91:.\Application.c **** void Init_I2C()
  92:.\Application.c **** {
 149              		.loc 1 92 0
 150              		.cfi_startproc
 151              		@ args = 0, pretend = 0, frame = 0
 152              		@ frame_needed = 0, uses_anonymous_args = 0
 153 0000 08B5     		push	{r3, lr}
 154              		.cfi_def_cfa_offset 8
 155              		.cfi_offset 3, -8
 156              		.cfi_offset 14, -4
  93:.\Application.c ****     I2C_Start();
 157              		.loc 1 93 0
 158 0002 FFF7FEFF 		bl	I2C_Start
 159              	.LVL13:
  94:.\Application.c ****     I2C_MasterClearStatus();
  95:.\Application.c **** }
 160              		.loc 1 95 0
 161 0006 BDE80840 		pop	{r3, lr}
  94:.\Application.c ****     I2C_MasterClearStatus();
 162              		.loc 1 94 0
 163 000a FFF7FEBF 		b	I2C_MasterClearStatus
 164              	.LVL14:
 165              		.cfi_endproc
 166              	.LFE61:
 167              		.size	Init_I2C, .-Init_I2C
 168              		.section	.text.Initialisations,"ax",%progbits
 169              		.align	1
 170              		.global	Initialisations
 171              		.thumb
 172              		.thumb_func
 173              		.type	Initialisations, %function
 174              	Initialisations:
 175              	.LFB58:
  62:.\Application.c **** {   
 176              		.loc 1 62 0
 177              		.cfi_startproc
 178              		@ args = 0, pretend = 0, frame = 0
 179              		@ frame_needed = 0, uses_anonymous_args = 0
 180 0000 08B5     		push	{r3, lr}
 181              		.cfi_def_cfa_offset 8
 182              		.cfi_offset 3, -8
 183              		.cfi_offset 14, -4
  63:.\Application.c ****     Init_Interruptions();
 184              		.loc 1 63 0
ARM GAS  C:\Users\Eih3\AppData\Local\Temp\ccIWKq4j.s 			page 6


 185 0002 FFF7FEFF 		bl	Init_Interruptions
 186              	.LVL15:
  65:.\Application.c ****     Init_I2C();
 187              		.loc 1 65 0
 188 0006 FFF7FEFF 		bl	Init_I2C
 189              	.LVL16:
  67:.\Application.c ****     Init_UART();
 190              		.loc 1 67 0
 191 000a FFF7FEFF 		bl	Init_UART
 192              	.LVL17:
  70:.\Application.c **** }
 193              		.loc 1 70 0
 194 000e BDE80840 		pop	{r3, lr}
  69:.\Application.c ****     Init_LCD();
 195              		.loc 1 69 0
 196 0012 FFF7FEBF 		b	Init_LCD
 197              	.LVL18:
 198              		.cfi_endproc
 199              	.LFE58:
 200              		.size	Initialisations, .-Initialisations
 201              		.section	.text.fonctionTest,"ax",%progbits
 202              		.align	1
 203              		.global	fonctionTest
 204              		.thumb
 205              		.thumb_func
 206              		.type	fonctionTest, %function
 207              	fonctionTest:
 208              	.LFB62:
  96:.\Application.c **** 
  97:.\Application.c **** /**** Fonction Test Divers ****/
  98:.\Application.c **** void fonctionTest()
  99:.\Application.c **** {    
 209              		.loc 1 99 0
 210              		.cfi_startproc
 211              		@ args = 0, pretend = 0, frame = 0
 212              		@ frame_needed = 0, uses_anonymous_args = 0
 100:.\Application.c ****     LCD_Position(0, 0);    
 213              		.loc 1 100 0
 214 0000 0020     		movs	r0, #0
  99:.\Application.c **** {    
 215              		.loc 1 99 0
 216 0002 38B5     		push	{r3, r4, r5, lr}
 217              		.cfi_def_cfa_offset 16
 218              		.cfi_offset 3, -16
 219              		.cfi_offset 4, -12
 220              		.cfi_offset 5, -8
 221              		.cfi_offset 14, -4
 222              		.loc 1 100 0
 223 0004 0146     		mov	r1, r0
 224 0006 124C     		ldr	r4, .L17
 225 0008 FFF7FEFF 		bl	LCD_Position
 226              	.LVL19:
 101:.\Application.c ****     
 102:.\Application.c ****     //writeData = 10 octets de 0 à 9
 103:.\Application.c ****     for (i = 0; i < 10; i++)  { writeData[i] = 0x30 + i; };
 227              		.loc 1 103 0
 228 000c 0023     		movs	r3, #0
ARM GAS  C:\Users\Eih3\AppData\Local\Temp\ccIWKq4j.s 			page 7


 229              	.L11:
 230              		.loc 1 103 0 is_stmt 0 discriminator 2
 231 000e 1149     		ldr	r1, .L17+4
 232 0010 03F13002 		add	r2, r3, #48
 233 0014 CA54     		strb	r2, [r1, r3]
 234 0016 0133     		adds	r3, r3, #1
 235 0018 DBB2     		uxtb	r3, r3
 236 001a 092B     		cmp	r3, #9
 237 001c F7D9     		bls	.L11
 104:.\Application.c ****     
 105:.\Application.c ****     /** Ecriture I2C 10 caractères **/
 106:.\Application.c ****     EcritureEEPROM(0, writeData, 10);
 238              		.loc 1 106 0 is_stmt 1
 239 001e 0020     		movs	r0, #0
 240 0020 0A22     		movs	r2, #10
 241 0022 2370     		strb	r3, [r4]
 242 0024 FFF7FEFF 		bl	EcritureEEPROM
 243              	.LVL20:
 107:.\Application.c **** 
 108:.\Application.c ****     /** Lecture I2C 10 caractères **/ 
 109:.\Application.c ****     LectureEEPROM(0, readData, 10);
 244              		.loc 1 109 0
 245 0028 0020     		movs	r0, #0
 246 002a 0B49     		ldr	r1, .L17+8
 247 002c 0A22     		movs	r2, #10
 248 002e FFF7FEFF 		bl	LectureEEPROM
 249              	.LVL21:
 110:.\Application.c ****     
 111:.\Application.c ****     //Affiche 10 caractères
 112:.\Application.c ****     for (i = 0; i < 10; i++)  { LCD_PutChar(readData[i]); };
 250              		.loc 1 112 0
 251 0032 0023     		movs	r3, #0
 252 0034 2370     		strb	r3, [r4]
 253              	.L13:
 254              		.loc 1 112 0 is_stmt 0 discriminator 1
 255 0036 2378     		ldrb	r3, [r4]	@ zero_extendqisi2
 256 0038 054D     		ldr	r5, .L17
 257 003a 092B     		cmp	r3, #9
 258 003c 07D8     		bhi	.L16
 259              		.loc 1 112 0 discriminator 2
 260 003e 064A     		ldr	r2, .L17+8
 261 0040 D05C     		ldrb	r0, [r2, r3]	@ zero_extendqisi2
 262 0042 FFF7FEFF 		bl	LCD_PutChar
 263              	.LVL22:
 264 0046 2B78     		ldrb	r3, [r5]	@ zero_extendqisi2
 265 0048 0133     		adds	r3, r3, #1
 266 004a 2B70     		strb	r3, [r5]
 267 004c F3E7     		b	.L13
 268              	.L16:
 113:.\Application.c **** }
 269              		.loc 1 113 0 is_stmt 1
 270 004e 38BD     		pop	{r3, r4, r5, pc}
 271              	.L18:
 272              		.align	2
 273              	.L17:
 274 0050 00000000 		.word	i
 275 0054 00000000 		.word	writeData
ARM GAS  C:\Users\Eih3\AppData\Local\Temp\ccIWKq4j.s 			page 8


 276 0058 00000000 		.word	readData
 277              		.cfi_endproc
 278              	.LFE62:
 279              		.size	fonctionTest, .-fonctionTest
 280              		.section	.text.wifiTest,"ax",%progbits
 281              		.align	1
 282              		.global	wifiTest
 283              		.thumb
 284              		.thumb_func
 285              		.type	wifiTest, %function
 286              	wifiTest:
 287              	.LFB63:
 114:.\Application.c **** 
 115:.\Application.c **** void wifiTest()
 116:.\Application.c **** {
 288              		.loc 1 116 0
 289              		.cfi_startproc
 290              		@ args = 0, pretend = 0, frame = 0
 291              		@ frame_needed = 0, uses_anonymous_args = 0
 117:.\Application.c ****     LCD_Position(0, 0);
 292              		.loc 1 117 0
 293 0000 0020     		movs	r0, #0
 116:.\Application.c **** {
 294              		.loc 1 116 0
 295 0002 10B5     		push	{r4, lr}
 296              		.cfi_def_cfa_offset 8
 297              		.cfi_offset 4, -8
 298              		.cfi_offset 14, -4
 299              		.loc 1 117 0
 300 0004 0146     		mov	r1, r0
 301 0006 FFF7FEFF 		bl	LCD_Position
 302              	.LVL23:
 118:.\Application.c ****     LCD_PrintString("Char rec: ");
 303              		.loc 1 118 0
 304 000a 1248     		ldr	r0, .L23
 305 000c FFF7FEFF 		bl	LCD_PrintString
 306              	.LVL24:
 119:.\Application.c ****     LCD_Position(0, 14);
 307              		.loc 1 119 0
 308 0010 0E21     		movs	r1, #14
 309 0012 0020     		movs	r0, #0
 310 0014 FFF7FEFF 		bl	LCD_Position
 311              	.LVL25:
 120:.\Application.c ****     LCD_PrintString("AP");
 312              		.loc 1 120 0
 313 0018 0F48     		ldr	r0, .L23+4
 314 001a FFF7FEFF 		bl	LCD_PrintString
 315              	.LVL26:
 121:.\Application.c ****     LCD_Position(1, 0);
 122:.\Application.c ****     LCD_PrintString("Char env: ");   
 123:.\Application.c **** 
 124:.\Application.c ****     UART_PutChar(i);
 316              		.loc 1 124 0
 317 001e 0F4C     		ldr	r4, .L23+8
 121:.\Application.c ****     LCD_Position(1, 0);
 318              		.loc 1 121 0
 319 0020 0021     		movs	r1, #0
ARM GAS  C:\Users\Eih3\AppData\Local\Temp\ccIWKq4j.s 			page 9


 320 0022 0120     		movs	r0, #1
 321 0024 FFF7FEFF 		bl	LCD_Position
 322              	.LVL27:
 122:.\Application.c ****     LCD_PrintString("Char env: ");   
 323              		.loc 1 122 0
 324 0028 0D48     		ldr	r0, .L23+12
 325 002a FFF7FEFF 		bl	LCD_PrintString
 326              	.LVL28:
 327              		.loc 1 124 0
 328 002e 2078     		ldrb	r0, [r4]	@ zero_extendqisi2
 329 0030 FFF7FEFF 		bl	UART_PutChar
 330              	.LVL29:
 125:.\Application.c ****     LCD_Position(1, 10);
 331              		.loc 1 125 0
 332 0034 0120     		movs	r0, #1
 333 0036 0A21     		movs	r1, #10
 334 0038 FFF7FEFF 		bl	LCD_Position
 335              	.LVL30:
 126:.\Application.c ****     LCD_PutChar(i);
 336              		.loc 1 126 0
 337 003c 2078     		ldrb	r0, [r4]	@ zero_extendqisi2
 338 003e FFF7FEFF 		bl	LCD_PutChar
 339              	.LVL31:
 127:.\Application.c ****     i++;        
 340              		.loc 1 127 0
 341 0042 2378     		ldrb	r3, [r4]	@ zero_extendqisi2
 342 0044 0133     		adds	r3, r3, #1
 343 0046 DBB2     		uxtb	r3, r3
 128:.\Application.c ****     if(i==127) i=33;  
 344              		.loc 1 128 0
 345 0048 7F2B     		cmp	r3, #127
 346 004a 08BF     		it	eq
 347 004c 2123     		moveq	r3, #33
 348 004e 2370     		strb	r3, [r4]
 349 0050 10BD     		pop	{r4, pc}
 350              	.L24:
 351 0052 00BF     		.align	2
 352              	.L23:
 353 0054 37000000 		.word	.LC4
 354 0058 42000000 		.word	.LC5
 355 005c 00000000 		.word	i
 356 0060 45000000 		.word	.LC6
 357              		.cfi_endproc
 358              	.LFE63:
 359              		.size	wifiTest, .-wifiTest
 360              		.section	.text.Application,"ax",%progbits
 361              		.align	1
 362              		.global	Application
 363              		.thumb
 364              		.thumb_func
 365              		.type	Application, %function
 366              	Application:
 367              	.LFB56:
  26:.\Application.c **** {
 368              		.loc 1 26 0
 369              		.cfi_startproc
 370              		@ args = 0, pretend = 0, frame = 0
ARM GAS  C:\Users\Eih3\AppData\Local\Temp\ccIWKq4j.s 			page 10


 371              		@ frame_needed = 0, uses_anonymous_args = 0
 372 0000 08B5     		push	{r3, lr}
 373              		.cfi_def_cfa_offset 8
 374              		.cfi_offset 3, -8
 375              		.cfi_offset 14, -4
  27:.\Application.c ****     Initialisations();
 376              		.loc 1 27 0
 377 0002 FFF7FEFF 		bl	Initialisations
 378              	.LVL32:
  28:.\Application.c ****     Configurations();     
 379              		.loc 1 28 0
 380 0006 FFF7FEFF 		bl	Configurations
 381              	.LVL33:
  32:.\Application.c ****     LCD_ClearDisplay();
 382              		.loc 1 32 0
 383 000a 0120     		movs	r0, #1
 384 000c FFF7FEFF 		bl	LCD_WriteControl
 385              	.LVL34:
  34:.\Application.c ****     i=33;
 386              		.loc 1 34 0
 387 0010 0F4B     		ldr	r3, .L31
 388 0012 2122     		movs	r2, #33
 389 0014 1A70     		strb	r2, [r3]
 390              	.L30:
  38:.\Application.c ****         if (!SW2_Read()) LCD_ClearDisplay();
 391              		.loc 1 38 0
 392 0016 FFF7FEFF 		bl	SW2_Read
 393              	.LVL35:
 394 001a 10B9     		cbnz	r0, .L26
  38:.\Application.c ****         if (!SW2_Read()) LCD_ClearDisplay();
 395              		.loc 1 38 0 is_stmt 0 discriminator 1
 396 001c 0120     		movs	r0, #1
 397 001e FFF7FEFF 		bl	LCD_WriteControl
 398              	.LVL36:
 399              	.L26:
  39:.\Application.c ****         if (!SW3_Read()) UART_PutChar(0x40); 
 400              		.loc 1 39 0 is_stmt 1
 401 0022 FFF7FEFF 		bl	SW3_Read
 402              	.LVL37:
 403 0026 10B9     		cbnz	r0, .L27
  39:.\Application.c ****         if (!SW3_Read()) UART_PutChar(0x40); 
 404              		.loc 1 39 0 is_stmt 0 discriminator 1
 405 0028 4020     		movs	r0, #64
 406 002a FFF7FEFF 		bl	UART_PutChar
 407              	.LVL38:
 408              	.L27:
  41:.\Application.c ****         if (Linked) wifiTest();
 409              		.loc 1 41 0 is_stmt 1
 410 002e 094B     		ldr	r3, .L31+4
 411 0030 1878     		ldrb	r0, [r3]	@ zero_extendqisi2
 412 0032 10B1     		cbz	r0, .L28
  41:.\Application.c ****         if (Linked) wifiTest();
 413              		.loc 1 41 0 is_stmt 0 discriminator 1
 414 0034 FFF7FEFF 		bl	wifiTest
 415              	.LVL39:
 416 0038 05E0     		b	.L29
 417              	.L28:
ARM GAS  C:\Users\Eih3\AppData\Local\Temp\ccIWKq4j.s 			page 11


  42:.\Application.c ****         else { LCD_Position(0, 0); LCD_PrintString("Attente de STA"); }
 418              		.loc 1 42 0 is_stmt 1
 419 003a 0146     		mov	r1, r0
 420 003c FFF7FEFF 		bl	LCD_Position
 421              	.LVL40:
 422 0040 0548     		ldr	r0, .L31+8
 423 0042 FFF7FEFF 		bl	LCD_PrintString
 424              	.LVL41:
 425              	.L29:
  44:.\Application.c ****         CyDelay(1000u);        
 426              		.loc 1 44 0
 427 0046 4FF47A70 		mov	r0, #1000
 428 004a FFF7FEFF 		bl	CyDelay
 429              	.LVL42:
  45:.\Application.c ****     }
 430              		.loc 1 45 0
 431 004e E2E7     		b	.L30
 432              	.L32:
 433              		.align	2
 434              	.L31:
 435 0050 00000000 		.word	i
 436 0054 00000000 		.word	Linked
 437 0058 50000000 		.word	.LC7
 438              		.cfi_endproc
 439              	.LFE56:
 440              		.size	Application, .-Application
 441              		.comm	Linked,1,1
 442              		.comm	ConfigEnd,1,1
 443              		.global	RxData
 444              		.comm	readData,254,1
 445              		.comm	writeData,254,1
 446              		.global	dataBuffer
 447              		.global	adresse
 448              		.comm	i,1,1
 449              		.section	.rodata.str1.1,"aMS",%progbits,1
 450              	.LC0:
 451 0000 2020204D 		.ascii	"   Module HF\000"
 451      6F64756C 
 451      65204846 
 451      00
 452              	.LC1:
 453 000d 436F6E66 		.ascii	"Configuration\000"
 453      69677572 
 453      6174696F 
 453      6E00
 454              	.LC2:
 455 001b 2020204D 		.ascii	"   Module AP\000"
 455      6F64756C 
 455      65204150 
 455      00
 456              	.LC3:
 457 0028 496E6974 		.ascii	"Initialisation\000"
 457      69616C69 
 457      73617469 
 457      6F6E00
 458              	.LC4:
 459 0037 43686172 		.ascii	"Char rec: \000"
ARM GAS  C:\Users\Eih3\AppData\Local\Temp\ccIWKq4j.s 			page 12


 459      20726563 
 459      3A2000
 460              	.LC5:
 461 0042 415000   		.ascii	"AP\000"
 462              	.LC6:
 463 0045 43686172 		.ascii	"Char env: \000"
 463      20656E76 
 463      3A2000
 464              	.LC7:
 465 0050 41747465 		.ascii	"Attente de STA\000"
 465      6E746520 
 465      64652053 
 465      544100
 466              		.data
 467              		.type	RxData, %object
 468              		.size	RxData, 1
 469              	RxData:
 470 0000 20       		.byte	32
 471              		.bss
 472              		.type	dataBuffer, %object
 473              		.size	dataBuffer, 254
 474              	dataBuffer:
 475 0000 00000000 		.space	254
 475      00000000 
 475      00000000 
 475      00000000 
 475      00000000 
 476              		.type	adresse, %object
 477              		.size	adresse, 2
 478              	adresse:
 479 00fe 0000     		.space	2
 480              		.text
 481              	.Letext0:
 482              		.file 2 "c:\\program files (x86)\\cypress\\psoc creator\\3.1\\psoc creator\\import\\gnu_cs\\arm\\4
 483              		.file 3 "c:\\program files (x86)\\cypress\\psoc creator\\3.1\\psoc creator\\import\\gnu_cs\\arm\\4
 484              		.file 4 ".\\Generated_Source\\PSoC5/cytypes.h"
 485              		.file 5 ".\\Generated_Source\\PSoC5/core_cm3.h"
 486              		.file 6 ".\\Generated_Source\\PSoC5/LCD.h"
 487              		.file 7 ".\\Generated_Source\\PSoC5/UART.h"
 488              		.file 8 ".\\Generated_Source\\PSoC5/CyLib.h"
 489              		.file 9 ".\\Generated_Source\\PSoC5/I2C.h"
 490              		.file 10 "./WIFI.h"
 491              		.file 11 "./Application.h"
 492              		.file 12 "./EEPROM.h"
 493              		.file 13 ".\\Generated_Source\\PSoC5/SW2.h"
 494              		.file 14 ".\\Generated_Source\\PSoC5/SW3.h"