ARM GAS  C:\Users\Eih3\AppData\Local\Temp\ccyYOuTw.s 			page 1


   1              		.syntax unified
   2              		.cpu cortex-m3
   3              		.fpu softvfp
   4              		.eabi_attribute 20, 1
   5              		.eabi_attribute 21, 1
   6              		.eabi_attribute 23, 3
   7              		.eabi_attribute 24, 1
   8              		.eabi_attribute 25, 1
   9              		.eabi_attribute 26, 1
  10              		.eabi_attribute 30, 4
  11              		.eabi_attribute 34, 1
  12              		.eabi_attribute 18, 4
  13              		.thumb
  14              		.file	"EEPROM.c"
  15              		.text
  16              	.Ltext0:
  17              		.cfi_sections	.debug_frame
  18              		.section	.text.EcritureEEPROM,"ax",%progbits
  19              		.align	1
  20              		.global	EcritureEEPROM
  21              		.thumb
  22              		.thumb_func
  23              		.type	EcritureEEPROM, %function
  24              	EcritureEEPROM:
  25              	.LFB56:
  26              		.file 1 ".\\EEPROM.c"
   1:.\EEPROM.c    **** /***************************************************************
   2:.\EEPROM.c    **** * Nom Fichier: EEPROM.c
   3:.\EEPROM.c    **** *
   4:.\EEPROM.c    **** * Fonctions:           
   5:.\EEPROM.c    **** *  Lecture EEPROM           
   6:.\EEPROM.c    **** *  Ecriture EEPROM          
   7:.\EEPROM.c    **** *
   8:.\EEPROM.c    **** ****************************************************************
   9:.\EEPROM.c    **** * CARNUS 2015, Escamez Michel - Soler Donovan - Verdier Jordan
  10:.\EEPROM.c    **** ***************************************************************/
  11:.\EEPROM.c    **** 
  12:.\EEPROM.c    **** /**** Déclarations & Directives ****/
  13:.\EEPROM.c    **** #include "Application.h"
  14:.\EEPROM.c    **** #include "EEPROM.h"
  15:.\EEPROM.c    **** 
  16:.\EEPROM.c    **** /**** Fonction pour écrire dans l'EEPROM ****
  17:.\EEPROM.c    ****  *
  18:.\EEPROM.c    ****  * uint8 address = adresse de l'EEPROM où placer le curseur
  19:.\EEPROM.c    ****  * uint8 * writeData = Stockage des valeurs EEPROM dans le tableau
  20:.\EEPROM.c    ****  *                    où dataBuffer[1] = addresse
  21:.\EEPROM.c    ****  * uint8 length = longueur des données à écrire
  22:.\EEPROM.c    ****  */
  23:.\EEPROM.c    **** void EcritureEEPROM(uint8 address, uint8 * writeData, uint8 length)
  24:.\EEPROM.c    **** {
  27              		.loc 1 24 0
  28              		.cfi_startproc
  29              		@ args = 0, pretend = 0, frame = 0
  30              		@ frame_needed = 0, uses_anonymous_args = 0
  31              	.LVL0:
  32 0000 F8B5     		push	{r3, r4, r5, r6, r7, lr}
  33              		.cfi_def_cfa_offset 24
ARM GAS  C:\Users\Eih3\AppData\Local\Temp\ccyYOuTw.s 			page 2


  34              		.cfi_offset 3, -24
  35              		.cfi_offset 4, -20
  36              		.cfi_offset 5, -16
  37              		.cfi_offset 6, -12
  38              		.cfi_offset 7, -8
  39              		.cfi_offset 14, -4
  40              		.loc 1 24 0
  41 0002 0546     		mov	r5, r0
  42 0004 0E46     		mov	r6, r1
  43 0006 1746     		mov	r7, r2
  25:.\EEPROM.c    ****     I2C_Start();
  26:.\EEPROM.c    ****     I2C_MasterClearStatus();
  27:.\EEPROM.c    ****     
  28:.\EEPROM.c    ****     dataBuffer[1] = address;
  44              		.loc 1 28 0
  45 0008 124C     		ldr	r4, .L8
  25:.\EEPROM.c    ****     I2C_Start();
  46              		.loc 1 25 0
  47 000a FFF7FEFF 		bl	I2C_Start
  48              	.LVL1:
  26:.\EEPROM.c    ****     I2C_MasterClearStatus();
  49              		.loc 1 26 0
  50 000e FFF7FEFF 		bl	I2C_MasterClearStatus
  51              	.LVL2:
  29:.\EEPROM.c    ****     
  30:.\EEPROM.c    ****     length += 2;   
  31:.\EEPROM.c    ****     
  32:.\EEPROM.c    ****     for (i = 0; i < length; i++)  { dataBuffer[i + 2] = writeData[i]; };
  52              		.loc 1 32 0
  53 0012 114B     		ldr	r3, .L8+4
  54 0014 0021     		movs	r1, #0
  30:.\EEPROM.c    ****     length += 2;   
  55              		.loc 1 30 0
  56 0016 BA1C     		adds	r2, r7, #2
  57              		.loc 1 32 0
  58 0018 1970     		strb	r1, [r3]
  28:.\EEPROM.c    ****     dataBuffer[1] = address;
  59              		.loc 1 28 0
  60 001a 6570     		strb	r5, [r4, #1]
  30:.\EEPROM.c    ****     length += 2;   
  61              		.loc 1 30 0
  62 001c D2B2     		uxtb	r2, r2
  63              	.LVL3:
  64 001e 1946     		mov	r1, r3
  65              	.L2:
  66              		.loc 1 32 0 discriminator 1
  67 0020 0B78     		ldrb	r3, [r1]	@ zero_extendqisi2
  68 0022 9342     		cmp	r3, r2
  69 0024 06D2     		bcs	.L7
  70              		.loc 1 32 0 is_stmt 0 discriminator 2
  71 0026 F55C     		ldrb	r5, [r6, r3]	@ zero_extendqisi2
  72 0028 E018     		adds	r0, r4, r3
  73 002a 8570     		strb	r5, [r0, #2]
  74 002c 0A48     		ldr	r0, .L8+4
  75 002e 0133     		adds	r3, r3, #1
  76 0030 0370     		strb	r3, [r0]
  77 0032 F5E7     		b	.L2
ARM GAS  C:\Users\Eih3\AppData\Local\Temp\ccyYOuTw.s 			page 3


  78              	.L7:
  33:.\EEPROM.c    ****     
  34:.\EEPROM.c    ****     I2C_MasterWriteBuf(SLAVE_ADDRESS,(uint8 *) dataBuffer, length, I2C_MODE_COMPLETE_XFER);
  79              		.loc 1 34 0 is_stmt 1
  80 0034 5020     		movs	r0, #80
  81 0036 0749     		ldr	r1, .L8
  82 0038 0023     		movs	r3, #0
  83 003a FFF7FEFF 		bl	I2C_MasterWriteBuf
  84              	.LVL4:
  85              	.L5:
  35:.\EEPROM.c    ****     while((I2C_MasterStatus() & I2C_MSTAT_WR_CMPLT) == 0u) {}
  86              		.loc 1 35 0 discriminator 1
  87 003e FFF7FEFF 		bl	I2C_MasterStatus
  88              	.LVL5:
  89 0042 8307     		lsls	r3, r0, #30
  90 0044 FBD5     		bpl	.L5
  36:.\EEPROM.c    ****     
  37:.\EEPROM.c    ****     CyDelay(50);
  91              		.loc 1 37 0
  92 0046 3220     		movs	r0, #50
  93 0048 FFF7FEFF 		bl	CyDelay
  94              	.LVL6:
  38:.\EEPROM.c    ****                 
  39:.\EEPROM.c    ****     I2C_MasterClearStatus();
  40:.\EEPROM.c    **** }
  95              		.loc 1 40 0
  96 004c BDE8F840 		pop	{r3, r4, r5, r6, r7, lr}
  97              	.LVL7:
  39:.\EEPROM.c    ****     I2C_MasterClearStatus();
  98              		.loc 1 39 0
  99 0050 FFF7FEBF 		b	I2C_MasterClearStatus
 100              	.LVL8:
 101              	.L9:
 102              		.align	2
 103              	.L8:
 104 0054 00000000 		.word	dataBuffer
 105 0058 00000000 		.word	i
 106              		.cfi_endproc
 107              	.LFE56:
 108              		.size	EcritureEEPROM, .-EcritureEEPROM
 109              		.section	.text.LectureEEPROM,"ax",%progbits
 110              		.align	1
 111              		.global	LectureEEPROM
 112              		.thumb
 113              		.thumb_func
 114              		.type	LectureEEPROM, %function
 115              	LectureEEPROM:
 116              	.LFB57:
  41:.\EEPROM.c    **** 
  42:.\EEPROM.c    **** /**** Fonction pour lire l'EEPROM ****
  43:.\EEPROM.c    ****  *
  44:.\EEPROM.c    ****  * uint8 address = adresse de l'EEPROM où placer le curseur
  45:.\EEPROM.c    ****  * uint8 * readData = Stockage des valeurs EEPROM dans le tableau
  46:.\EEPROM.c    ****  *                    où adresse[1] = addresse
  47:.\EEPROM.c    ****  * uint8 length = longueur des données à lire
  48:.\EEPROM.c    ****  */
  49:.\EEPROM.c    **** void LectureEEPROM(uint8 address, uint8 * readData, uint8 length)
ARM GAS  C:\Users\Eih3\AppData\Local\Temp\ccyYOuTw.s 			page 4


  50:.\EEPROM.c    **** {   
 117              		.loc 1 50 0
 118              		.cfi_startproc
 119              		@ args = 0, pretend = 0, frame = 0
 120              		@ frame_needed = 0, uses_anonymous_args = 0
 121              	.LVL9:
 122 0000 2DE9F041 		push	{r4, r5, r6, r7, r8, lr}
 123              		.cfi_def_cfa_offset 24
 124              		.cfi_offset 4, -24
 125              		.cfi_offset 5, -20
 126              		.cfi_offset 6, -16
 127              		.cfi_offset 7, -12
 128              		.cfi_offset 8, -8
 129              		.cfi_offset 14, -4
 130              		.loc 1 50 0
 131 0004 1646     		mov	r6, r2
 132 0006 0446     		mov	r4, r0
 133 0008 0F46     		mov	r7, r1
  51:.\EEPROM.c    ****     I2C_Start();
 134              		.loc 1 51 0
 135 000a FFF7FEFF 		bl	I2C_Start
 136              	.LVL10:
  52:.\EEPROM.c    ****     I2C_MasterClearStatus();
 137              		.loc 1 52 0
 138 000e FFF7FEFF 		bl	I2C_MasterClearStatus
 139              	.LVL11:
  53:.\EEPROM.c    ****     
  54:.\EEPROM.c    ****     adresse[1] = address;
 140              		.loc 1 54 0
 141 0012 1549     		ldr	r1, .L16
  55:.\EEPROM.c    ****     
  56:.\EEPROM.c    ****     length += 1;   
 142              		.loc 1 56 0
 143 0014 0136     		adds	r6, r6, #1
  57:.\EEPROM.c    ****     
  58:.\EEPROM.c    ****     I2C_MasterWriteBuf(SLAVE_ADDRESS,(uint8 *) adresse ,2 , I2C_MODE_COMPLETE_XFER);
 144              		.loc 1 58 0
 145 0016 5020     		movs	r0, #80
 146 0018 0222     		movs	r2, #2
 147 001a 0023     		movs	r3, #0
  54:.\EEPROM.c    ****     adresse[1] = address;
 148              		.loc 1 54 0
 149 001c 4C70     		strb	r4, [r1, #1]
  56:.\EEPROM.c    ****     length += 1;   
 150              		.loc 1 56 0
 151 001e F6B2     		uxtb	r6, r6
 152              	.LVL12:
 153              		.loc 1 58 0
 154 0020 FFF7FEFF 		bl	I2C_MasterWriteBuf
 155              	.LVL13:
 156              	.L12:
  59:.\EEPROM.c    ****     while((I2C_MasterStatus() & I2C_MSTAT_WR_CMPLT) == 0u) {}
 157              		.loc 1 59 0 discriminator 1
 158 0024 FFF7FEFF 		bl	I2C_MasterStatus
 159              	.LVL14:
 160 0028 8307     		lsls	r3, r0, #30
 161 002a FBD5     		bpl	.L12
ARM GAS  C:\Users\Eih3\AppData\Local\Temp\ccyYOuTw.s 			page 5


  60:.\EEPROM.c    ****     
  61:.\EEPROM.c    ****     I2C_MasterSendStart(SLAVE_ADDRESS, 1);   
 162              		.loc 1 61 0
 163 002c 5020     		movs	r0, #80
 164 002e 0121     		movs	r1, #1
 165 0030 FFF7FEFF 		bl	I2C_MasterSendStart
 166              	.LVL15:
  62:.\EEPROM.c    ****     
  63:.\EEPROM.c    ****     for (i = 0; i < length; i++)  { readData[i] = I2C_MasterReadByte(1u); };
 167              		.loc 1 63 0
 168 0034 0D4B     		ldr	r3, .L16+4
 169 0036 0022     		movs	r2, #0
 170 0038 1A70     		strb	r2, [r3]
 171 003a 9846     		mov	r8, r3
 172              	.L13:
 173              		.loc 1 63 0 is_stmt 0 discriminator 1
 174 003c 98F80040 		ldrb	r4, [r8]	@ zero_extendqisi2
 175 0040 0A4D     		ldr	r5, .L16+4
 176 0042 B442     		cmp	r4, r6
 177 0044 07D2     		bcs	.L15
 178              		.loc 1 63 0 discriminator 2
 179 0046 0120     		movs	r0, #1
 180 0048 FFF7FEFF 		bl	I2C_MasterReadByte
 181              	.LVL16:
 182 004c 3855     		strb	r0, [r7, r4]
 183 004e 2B78     		ldrb	r3, [r5]	@ zero_extendqisi2
 184 0050 0133     		adds	r3, r3, #1
 185 0052 2B70     		strb	r3, [r5]
 186 0054 F2E7     		b	.L13
 187              	.L15:
  64:.\EEPROM.c    ****     
  65:.\EEPROM.c    ****     CyDelay(50);
 188              		.loc 1 65 0 is_stmt 1
 189 0056 3220     		movs	r0, #50
 190 0058 FFF7FEFF 		bl	CyDelay
 191              	.LVL17:
  66:.\EEPROM.c    ****     
  67:.\EEPROM.c    ****     I2C_MasterSendStop();
 192              		.loc 1 67 0
 193 005c FFF7FEFF 		bl	I2C_MasterSendStop
 194              	.LVL18:
  68:.\EEPROM.c    ****     
  69:.\EEPROM.c    ****     I2C_MasterClearStatus();   
  70:.\EEPROM.c    **** }
 195              		.loc 1 70 0
 196 0060 BDE8F041 		pop	{r4, r5, r6, r7, r8, lr}
 197              	.LVL19:
  69:.\EEPROM.c    ****     I2C_MasterClearStatus();   
 198              		.loc 1 69 0
 199 0064 FFF7FEBF 		b	I2C_MasterClearStatus
 200              	.LVL20:
 201              	.L17:
 202              		.align	2
 203              	.L16:
 204 0068 00000000 		.word	adresse
 205 006c 00000000 		.word	i
 206              		.cfi_endproc
ARM GAS  C:\Users\Eih3\AppData\Local\Temp\ccyYOuTw.s 			page 6


 207              	.LFE57:
 208              		.size	LectureEEPROM, .-LectureEEPROM
 209              		.comm	i,1,1
 210              		.text
 211              	.Letext0:
 212              		.file 2 "c:\\program files (x86)\\cypress\\psoc creator\\3.1\\psoc creator\\import\\gnu_cs\\arm\\4
 213              		.file 3 "c:\\program files (x86)\\cypress\\psoc creator\\3.1\\psoc creator\\import\\gnu_cs\\arm\\4
 214              		.file 4 ".\\Generated_Source\\PSoC5/cytypes.h"
 215              		.file 5 ".\\Generated_Source\\PSoC5/core_cm3.h"
 216              		.file 6 ".\\EEPROM.h"
 217              		.file 7 ".\\Generated_Source\\PSoC5/I2C.h"
 218              		.file 8 ".\\Generated_Source\\PSoC5/CyLib.h"