ARM GAS  C:\Users\Eih3\AppData\Local\Temp\ccGBH7mu.s 			page 1


   1              		.syntax unified
   2              		.cpu cortex-m3
   3              		.fpu softvfp
   4              		.eabi_attribute 20, 1
   5              		.eabi_attribute 21, 1
   6              		.eabi_attribute 23, 3
   7              		.eabi_attribute 24, 1
   8              		.eabi_attribute 25, 1
   9              		.eabi_attribute 26, 1
  10              		.eabi_attribute 30, 4
  11              		.eabi_attribute 34, 1
  12              		.eabi_attribute 18, 4
  13              		.thumb
  14              		.file	"I2C_MASTER.c"
  15              		.text
  16              	.Ltext0:
  17              		.cfi_sections	.debug_frame
  18              		.section	.text.I2C_MasterWriteBuf,"ax",%progbits
  19              		.align	1
  20              		.global	I2C_MasterWriteBuf
  21              		.thumb
  22              		.thumb_func
  23              		.type	I2C_MasterWriteBuf, %function
  24              	I2C_MasterWriteBuf:
  25              	.LFB0:
  26              		.file 1 ".\\Generated_Source\\PSoC5\\I2C_MASTER.c"
   1:.\Generated_Source\PSoC5/I2C_MASTER.c **** /*******************************************************************************
   2:.\Generated_Source\PSoC5/I2C_MASTER.c **** * File Name: I2C_MASTER.c
   3:.\Generated_Source\PSoC5/I2C_MASTER.c **** * Version 3.40
   4:.\Generated_Source\PSoC5/I2C_MASTER.c **** *
   5:.\Generated_Source\PSoC5/I2C_MASTER.c **** * Description:
   6:.\Generated_Source\PSoC5/I2C_MASTER.c **** *  This file provides the source code of APIs for the I2C component master mode.
   7:.\Generated_Source\PSoC5/I2C_MASTER.c **** *
   8:.\Generated_Source\PSoC5/I2C_MASTER.c **** *******************************************************************************
   9:.\Generated_Source\PSoC5/I2C_MASTER.c **** * Copyright 2012-2015, Cypress Semiconductor Corporation. All rights reserved.
  10:.\Generated_Source\PSoC5/I2C_MASTER.c **** * You may use this file only in accordance with the license, terms, conditions,
  11:.\Generated_Source\PSoC5/I2C_MASTER.c **** * disclaimers, and limitations in the end user license agreement accompanying
  12:.\Generated_Source\PSoC5/I2C_MASTER.c **** * the software package with which this file was provided.
  13:.\Generated_Source\PSoC5/I2C_MASTER.c **** *******************************************************************************/
  14:.\Generated_Source\PSoC5/I2C_MASTER.c **** 
  15:.\Generated_Source\PSoC5/I2C_MASTER.c **** #include "I2C_PVT.h"
  16:.\Generated_Source\PSoC5/I2C_MASTER.c **** 
  17:.\Generated_Source\PSoC5/I2C_MASTER.c **** #if(I2C_MODE_MASTER_ENABLED)
  18:.\Generated_Source\PSoC5/I2C_MASTER.c **** 
  19:.\Generated_Source\PSoC5/I2C_MASTER.c **** /**********************************
  20:.\Generated_Source\PSoC5/I2C_MASTER.c **** *      System variables
  21:.\Generated_Source\PSoC5/I2C_MASTER.c **** **********************************/
  22:.\Generated_Source\PSoC5/I2C_MASTER.c **** 
  23:.\Generated_Source\PSoC5/I2C_MASTER.c **** volatile uint8 I2C_mstrStatus;     /* Master Status byte  */
  24:.\Generated_Source\PSoC5/I2C_MASTER.c **** volatile uint8 I2C_mstrControl;    /* Master Control byte */
  25:.\Generated_Source\PSoC5/I2C_MASTER.c **** 
  26:.\Generated_Source\PSoC5/I2C_MASTER.c **** /* Transmit buffer variables */
  27:.\Generated_Source\PSoC5/I2C_MASTER.c **** volatile uint8 * I2C_mstrRdBufPtr;     /* Pointer to Master Read buffer */
  28:.\Generated_Source\PSoC5/I2C_MASTER.c **** volatile uint8   I2C_mstrRdBufSize;    /* Master Read buffer size       */
  29:.\Generated_Source\PSoC5/I2C_MASTER.c **** volatile uint8   I2C_mstrRdBufIndex;   /* Master Read buffer Index      */
  30:.\Generated_Source\PSoC5/I2C_MASTER.c **** 
  31:.\Generated_Source\PSoC5/I2C_MASTER.c **** /* Receive buffer variables */
ARM GAS  C:\Users\Eih3\AppData\Local\Temp\ccGBH7mu.s 			page 2


  32:.\Generated_Source\PSoC5/I2C_MASTER.c **** volatile uint8 * I2C_mstrWrBufPtr;     /* Pointer to Master Write buffer */
  33:.\Generated_Source\PSoC5/I2C_MASTER.c **** volatile uint8   I2C_mstrWrBufSize;    /* Master Write buffer size       */
  34:.\Generated_Source\PSoC5/I2C_MASTER.c **** volatile uint8   I2C_mstrWrBufIndex;   /* Master Write buffer Index      */
  35:.\Generated_Source\PSoC5/I2C_MASTER.c **** 
  36:.\Generated_Source\PSoC5/I2C_MASTER.c **** 
  37:.\Generated_Source\PSoC5/I2C_MASTER.c **** /*******************************************************************************
  38:.\Generated_Source\PSoC5/I2C_MASTER.c **** * Function Name: I2C_MasterWriteBuf
  39:.\Generated_Source\PSoC5/I2C_MASTER.c **** ********************************************************************************
  40:.\Generated_Source\PSoC5/I2C_MASTER.c **** *
  41:.\Generated_Source\PSoC5/I2C_MASTER.c **** * Summary:
  42:.\Generated_Source\PSoC5/I2C_MASTER.c **** *  Automatically writes an entire buffer of data to a slave device. Once the
  43:.\Generated_Source\PSoC5/I2C_MASTER.c **** *  data transfer is initiated by this function, further data transfer is handled
  44:.\Generated_Source\PSoC5/I2C_MASTER.c **** *  by the included ISR in byte by byte mode.
  45:.\Generated_Source\PSoC5/I2C_MASTER.c **** *
  46:.\Generated_Source\PSoC5/I2C_MASTER.c **** * Parameters:
  47:.\Generated_Source\PSoC5/I2C_MASTER.c **** *  slaveAddr: 7-bit slave address.
  48:.\Generated_Source\PSoC5/I2C_MASTER.c **** *  xferData:  Pointer to buffer of data to be sent.
  49:.\Generated_Source\PSoC5/I2C_MASTER.c **** *  cnt:       Size of buffer to send.
  50:.\Generated_Source\PSoC5/I2C_MASTER.c **** *  mode:      Transfer mode defines: start or restart condition generation at
  51:.\Generated_Source\PSoC5/I2C_MASTER.c **** *             begin of the transfer and complete the transfer or halt before
  52:.\Generated_Source\PSoC5/I2C_MASTER.c **** *             generating a stop.
  53:.\Generated_Source\PSoC5/I2C_MASTER.c **** *
  54:.\Generated_Source\PSoC5/I2C_MASTER.c **** * Return:
  55:.\Generated_Source\PSoC5/I2C_MASTER.c **** *  Status error - Zero means no errors.
  56:.\Generated_Source\PSoC5/I2C_MASTER.c **** *
  57:.\Generated_Source\PSoC5/I2C_MASTER.c **** * Side Effects:
  58:.\Generated_Source\PSoC5/I2C_MASTER.c **** *  The included ISR will start a transfer after a start or restart condition is
  59:.\Generated_Source\PSoC5/I2C_MASTER.c **** *  generated.
  60:.\Generated_Source\PSoC5/I2C_MASTER.c **** *
  61:.\Generated_Source\PSoC5/I2C_MASTER.c **** * Global variables:
  62:.\Generated_Source\PSoC5/I2C_MASTER.c **** *  I2C_mstrStatus  - The global variable used to store a current
  63:.\Generated_Source\PSoC5/I2C_MASTER.c **** *                                 status of the I2C Master.
  64:.\Generated_Source\PSoC5/I2C_MASTER.c **** *  I2C_state       - The global variable used to store a current
  65:.\Generated_Source\PSoC5/I2C_MASTER.c **** *                                 state of the software FSM.
  66:.\Generated_Source\PSoC5/I2C_MASTER.c **** *  I2C_mstrControl - The global variable used to control the master
  67:.\Generated_Source\PSoC5/I2C_MASTER.c **** *                                 end of a transaction with or without Stop
  68:.\Generated_Source\PSoC5/I2C_MASTER.c **** *                                 generation.
  69:.\Generated_Source\PSoC5/I2C_MASTER.c **** *  I2C_mstrWrBufPtr - The global variable used to store a pointer
  70:.\Generated_Source\PSoC5/I2C_MASTER.c **** *                                  to the master write buffer.
  71:.\Generated_Source\PSoC5/I2C_MASTER.c **** *  I2C_mstrWrBufIndex - The global variable used to store current
  72:.\Generated_Source\PSoC5/I2C_MASTER.c **** *                                    index within the master write buffer.
  73:.\Generated_Source\PSoC5/I2C_MASTER.c **** *  I2C_mstrWrBufSize - The global variable used to store a master
  74:.\Generated_Source\PSoC5/I2C_MASTER.c **** *                                   write buffer size.
  75:.\Generated_Source\PSoC5/I2C_MASTER.c **** *
  76:.\Generated_Source\PSoC5/I2C_MASTER.c **** * Reentrant:
  77:.\Generated_Source\PSoC5/I2C_MASTER.c **** *  No
  78:.\Generated_Source\PSoC5/I2C_MASTER.c **** *
  79:.\Generated_Source\PSoC5/I2C_MASTER.c **** *******************************************************************************/
  80:.\Generated_Source\PSoC5/I2C_MASTER.c **** uint8 I2C_MasterWriteBuf(uint8 slaveAddress, uint8 * wrData, uint8 cnt, uint8 mode)
  81:.\Generated_Source\PSoC5/I2C_MASTER.c ****       
  82:.\Generated_Source\PSoC5/I2C_MASTER.c **** {
  27              		.loc 1 82 0
  28              		.cfi_startproc
  29              		@ args = 0, pretend = 0, frame = 0
  30              		@ frame_needed = 0, uses_anonymous_args = 0
  31              	.LVL0:
  32 0000 70B5     		push	{r4, r5, r6, lr}
ARM GAS  C:\Users\Eih3\AppData\Local\Temp\ccGBH7mu.s 			page 3


  33              		.cfi_def_cfa_offset 16
  34              		.cfi_offset 4, -16
  35              		.cfi_offset 5, -12
  36              		.cfi_offset 6, -8
  37              		.cfi_offset 14, -4
  83:.\Generated_Source\PSoC5/I2C_MASTER.c ****     uint8 errStatus;
  84:.\Generated_Source\PSoC5/I2C_MASTER.c **** 
  85:.\Generated_Source\PSoC5/I2C_MASTER.c ****     errStatus = I2C_MSTR_NOT_READY;
  86:.\Generated_Source\PSoC5/I2C_MASTER.c **** 
  87:.\Generated_Source\PSoC5/I2C_MASTER.c ****     if(NULL != wrData)
  38              		.loc 1 87 0
  39 0002 B1B1     		cbz	r1, .L10
  88:.\Generated_Source\PSoC5/I2C_MASTER.c ****     {
  89:.\Generated_Source\PSoC5/I2C_MASTER.c ****         /* Check I2C state to allow transfer: valid states are IDLE or HALT */
  90:.\Generated_Source\PSoC5/I2C_MASTER.c ****         if(I2C_SM_IDLE == I2C_state)
  40              		.loc 1 90 0
  41 0004 1E4C     		ldr	r4, .L19
  42 0006 2578     		ldrb	r5, [r4]	@ zero_extendqisi2
  43 0008 102D     		cmp	r5, #16
  44 000a 05D1     		bne	.L3
  91:.\Generated_Source\PSoC5/I2C_MASTER.c ****         {
  92:.\Generated_Source\PSoC5/I2C_MASTER.c ****             /* Master is ready for transaction: check if bus is free */
  93:.\Generated_Source\PSoC5/I2C_MASTER.c ****             if(I2C_CHECK_BUS_FREE(I2C_MCSR_REG))
  45              		.loc 1 93 0
  46 000c 1D4D     		ldr	r5, .L19+4
  47 000e 2D78     		ldrb	r5, [r5]	@ zero_extendqisi2
  48 0010 2D07     		lsls	r5, r5, #28
  49 0012 10D5     		bpl	.L4
  94:.\Generated_Source\PSoC5/I2C_MASTER.c ****             {
  95:.\Generated_Source\PSoC5/I2C_MASTER.c ****                 errStatus = I2C_MSTR_NO_ERROR;
  96:.\Generated_Source\PSoC5/I2C_MASTER.c ****             }
  97:.\Generated_Source\PSoC5/I2C_MASTER.c ****             else
  98:.\Generated_Source\PSoC5/I2C_MASTER.c ****             {
  99:.\Generated_Source\PSoC5/I2C_MASTER.c ****                 errStatus = I2C_MSTR_BUS_BUSY;
  50              		.loc 1 99 0
  51 0014 0120     		movs	r0, #1
  52              	.LVL1:
  53 0016 70BD     		pop	{r4, r5, r6, pc}
  54              	.LVL2:
  55              	.L3:
 100:.\Generated_Source\PSoC5/I2C_MASTER.c ****             }
 101:.\Generated_Source\PSoC5/I2C_MASTER.c ****         }
 102:.\Generated_Source\PSoC5/I2C_MASTER.c ****         else if(I2C_SM_MSTR_HALT == I2C_state)
  56              		.loc 1 102 0
  57 0018 2578     		ldrb	r5, [r4]	@ zero_extendqisi2
  58 001a 602D     		cmp	r5, #96
  59 001c 09D1     		bne	.L10
  60              	.LVL3:
 103:.\Generated_Source\PSoC5/I2C_MASTER.c ****         {
 104:.\Generated_Source\PSoC5/I2C_MASTER.c ****             /* Master is ready and waiting for ReStart */
 105:.\Generated_Source\PSoC5/I2C_MASTER.c ****             errStatus = I2C_MSTR_NO_ERROR;
 106:.\Generated_Source\PSoC5/I2C_MASTER.c **** 
 107:.\Generated_Source\PSoC5/I2C_MASTER.c ****             I2C_ClearPendingInt();
  61              		.loc 1 107 0
  62 001e 1A4D     		ldr	r5, .L19+8
  63 0020 4FF40046 		mov	r6, #32768
  64 0024 2E60     		str	r6, [r5]
ARM GAS  C:\Users\Eih3\AppData\Local\Temp\ccGBH7mu.s 			page 4


 108:.\Generated_Source\PSoC5/I2C_MASTER.c ****             I2C_mstrStatus &= (uint8) ~I2C_MSTAT_XFER_HALT;
  65              		.loc 1 108 0
  66 0026 194D     		ldr	r5, .L19+12
  67 0028 2E78     		ldrb	r6, [r5]	@ zero_extendqisi2
  68 002a 06F0F706 		and	r6, r6, #247
  69 002e 2E70     		strb	r6, [r5]
  70 0030 01E0     		b	.L4
  71              	.LVL4:
  72              	.L10:
  85:.\Generated_Source\PSoC5/I2C_MASTER.c ****     errStatus = I2C_MSTR_NOT_READY;
  73              		.loc 1 85 0
  74 0032 0220     		movs	r0, #2
  75              	.LVL5:
  76 0034 70BD     		pop	{r4, r5, r6, pc}
  77              	.LVL6:
  78              	.L4:
 109:.\Generated_Source\PSoC5/I2C_MASTER.c ****         }
 110:.\Generated_Source\PSoC5/I2C_MASTER.c ****         else
 111:.\Generated_Source\PSoC5/I2C_MASTER.c ****         {
 112:.\Generated_Source\PSoC5/I2C_MASTER.c ****             /* errStatus = I2C_MSTR_NOT_READY was send before */
 113:.\Generated_Source\PSoC5/I2C_MASTER.c ****         }
 114:.\Generated_Source\PSoC5/I2C_MASTER.c **** 
 115:.\Generated_Source\PSoC5/I2C_MASTER.c ****         if(I2C_MSTR_NO_ERROR == errStatus)
 116:.\Generated_Source\PSoC5/I2C_MASTER.c ****         {
 117:.\Generated_Source\PSoC5/I2C_MASTER.c ****             /* Set state to start write transaction */
 118:.\Generated_Source\PSoC5/I2C_MASTER.c ****             I2C_state = I2C_SM_MSTR_WR_ADDR;
  79              		.loc 1 118 0
  80 0036 4525     		movs	r5, #69
  81 0038 2570     		strb	r5, [r4]
 119:.\Generated_Source\PSoC5/I2C_MASTER.c **** 
 120:.\Generated_Source\PSoC5/I2C_MASTER.c ****             /* Prepare write buffer */
 121:.\Generated_Source\PSoC5/I2C_MASTER.c ****             I2C_mstrWrBufIndex = 0u;
  82              		.loc 1 121 0
  83 003a 154C     		ldr	r4, .L19+16
  84 003c 0025     		movs	r5, #0
  85 003e 2570     		strb	r5, [r4]
 122:.\Generated_Source\PSoC5/I2C_MASTER.c ****             I2C_mstrWrBufSize  = cnt;
  86              		.loc 1 122 0
  87 0040 144C     		ldr	r4, .L19+20
 123:.\Generated_Source\PSoC5/I2C_MASTER.c ****             I2C_mstrWrBufPtr   = (volatile uint8 *) wrData;
 124:.\Generated_Source\PSoC5/I2C_MASTER.c **** 
 125:.\Generated_Source\PSoC5/I2C_MASTER.c ****             /* Set end of transaction flag: Stop or Halt (following ReStart) */
 126:.\Generated_Source\PSoC5/I2C_MASTER.c ****             I2C_mstrControl = mode;
 127:.\Generated_Source\PSoC5/I2C_MASTER.c **** 
 128:.\Generated_Source\PSoC5/I2C_MASTER.c ****             /* Clear write status history */
 129:.\Generated_Source\PSoC5/I2C_MASTER.c ****             I2C_mstrStatus &= (uint8) ~I2C_MSTAT_WR_CMPLT;
 130:.\Generated_Source\PSoC5/I2C_MASTER.c **** 
 131:.\Generated_Source\PSoC5/I2C_MASTER.c ****             /* Hardware actions: write address and generate Start or ReStart */
 132:.\Generated_Source\PSoC5/I2C_MASTER.c ****             I2C_DATA_REG = (uint8) (slaveAddress << I2C_SLAVE_ADDR_SHIFT);
  88              		.loc 1 132 0
  89 0042 4000     		lsls	r0, r0, #1
  90              	.LVL7:
 122:.\Generated_Source\PSoC5/I2C_MASTER.c ****             I2C_mstrWrBufSize  = cnt;
  91              		.loc 1 122 0
  92 0044 2270     		strb	r2, [r4]
 123:.\Generated_Source\PSoC5/I2C_MASTER.c ****             I2C_mstrWrBufPtr   = (volatile uint8 *) wrData;
  93              		.loc 1 123 0
ARM GAS  C:\Users\Eih3\AppData\Local\Temp\ccGBH7mu.s 			page 5


  94 0046 144A     		ldr	r2, .L19+24
  95              	.LVL8:
  96              		.loc 1 132 0
  97 0048 C0B2     		uxtb	r0, r0
 123:.\Generated_Source\PSoC5/I2C_MASTER.c ****             I2C_mstrWrBufPtr   = (volatile uint8 *) wrData;
  98              		.loc 1 123 0
  99 004a 1160     		str	r1, [r2]
 126:.\Generated_Source\PSoC5/I2C_MASTER.c ****             I2C_mstrControl = mode;
 100              		.loc 1 126 0
 101 004c 134A     		ldr	r2, .L19+28
 133:.\Generated_Source\PSoC5/I2C_MASTER.c **** 
 134:.\Generated_Source\PSoC5/I2C_MASTER.c ****             if(I2C_CHECK_RESTART(mode))
 102              		.loc 1 134 0
 103 004e 13F0010F 		tst	r3, #1
 126:.\Generated_Source\PSoC5/I2C_MASTER.c ****             I2C_mstrControl = mode;
 104              		.loc 1 126 0
 105 0052 1370     		strb	r3, [r2]
 106              	.LVL9:
 129:.\Generated_Source\PSoC5/I2C_MASTER.c ****             I2C_mstrStatus &= (uint8) ~I2C_MSTAT_WR_CMPLT;
 107              		.loc 1 129 0
 108 0054 0D4A     		ldr	r2, .L19+12
 109 0056 0B4B     		ldr	r3, .L19+4
 110              	.LVL10:
 111 0058 1178     		ldrb	r1, [r2]	@ zero_extendqisi2
 112              	.LVL11:
 113 005a 01F0FD01 		and	r1, r1, #253
 114 005e 1170     		strb	r1, [r2]
 115              	.LVL12:
 132:.\Generated_Source\PSoC5/I2C_MASTER.c ****             I2C_DATA_REG = (uint8) (slaveAddress << I2C_SLAVE_ADDR_SHIFT);
 116              		.loc 1 132 0
 117 0060 0F4A     		ldr	r2, .L19+32
 118 0062 1070     		strb	r0, [r2]
 119              	.LVL13:
 120              		.loc 1 134 0
 121 0064 04D0     		beq	.L18
 135:.\Generated_Source\PSoC5/I2C_MASTER.c ****             {
 136:.\Generated_Source\PSoC5/I2C_MASTER.c ****                 I2C_GENERATE_RESTART;
 122              		.loc 1 136 0
 123 0066 1222     		movs	r2, #18
 124 0068 1A70     		strb	r2, [r3]
 125 006a 0422     		movs	r2, #4
 126 006c 0D4B     		ldr	r3, .L19+36
 127 006e 00E0     		b	.L16
 128              	.L18:
 137:.\Generated_Source\PSoC5/I2C_MASTER.c ****             }
 138:.\Generated_Source\PSoC5/I2C_MASTER.c ****             else
 139:.\Generated_Source\PSoC5/I2C_MASTER.c ****             {
 140:.\Generated_Source\PSoC5/I2C_MASTER.c ****                 I2C_GENERATE_START;
 129              		.loc 1 140 0
 130 0070 0122     		movs	r2, #1
 131              	.L16:
 132 0072 1A70     		strb	r2, [r3]
 141:.\Generated_Source\PSoC5/I2C_MASTER.c ****             }
 142:.\Generated_Source\PSoC5/I2C_MASTER.c **** 
 143:.\Generated_Source\PSoC5/I2C_MASTER.c ****             /* Enable interrupt to complete transfer */
 144:.\Generated_Source\PSoC5/I2C_MASTER.c ****             I2C_EnableInt();
 133              		.loc 1 144 0
ARM GAS  C:\Users\Eih3\AppData\Local\Temp\ccGBH7mu.s 			page 6


 134 0074 0C4B     		ldr	r3, .L19+40
 135 0076 4FF40042 		mov	r2, #32768
 136 007a 1A60     		str	r2, [r3]
 137 007c 0020     		movs	r0, #0
 138 007e 70BD     		pop	{r4, r5, r6, pc}
 139              	.L20:
 140              		.align	2
 141              	.L19:
 142 0080 00000000 		.word	I2C_state
 143 0084 D9490040 		.word	1073760729
 144 0088 80E200E0 		.word	-536812928
 145 008c 00000000 		.word	I2C_mstrStatus
 146 0090 00000000 		.word	I2C_mstrWrBufIndex
 147 0094 00000000 		.word	I2C_mstrWrBufSize
 148 0098 00000000 		.word	I2C_mstrWrBufPtr
 149 009c 00000000 		.word	I2C_mstrControl
 150 00a0 D8490040 		.word	1073760728
 151 00a4 D7490040 		.word	1073760727
 152 00a8 00E100E0 		.word	-536813312
 153              		.cfi_endproc
 154              	.LFE0:
 155              		.size	I2C_MasterWriteBuf, .-I2C_MasterWriteBuf
 156              		.section	.text.I2C_MasterReadBuf,"ax",%progbits
 157              		.align	1
 158              		.global	I2C_MasterReadBuf
 159              		.thumb
 160              		.thumb_func
 161              		.type	I2C_MasterReadBuf, %function
 162              	I2C_MasterReadBuf:
 163              	.LFB1:
 145:.\Generated_Source\PSoC5/I2C_MASTER.c ****         }
 146:.\Generated_Source\PSoC5/I2C_MASTER.c ****     }
 147:.\Generated_Source\PSoC5/I2C_MASTER.c **** 
 148:.\Generated_Source\PSoC5/I2C_MASTER.c ****     return(errStatus);
 149:.\Generated_Source\PSoC5/I2C_MASTER.c **** }
 150:.\Generated_Source\PSoC5/I2C_MASTER.c **** 
 151:.\Generated_Source\PSoC5/I2C_MASTER.c **** 
 152:.\Generated_Source\PSoC5/I2C_MASTER.c **** /*******************************************************************************
 153:.\Generated_Source\PSoC5/I2C_MASTER.c **** * Function Name: I2C_MasterReadBuf
 154:.\Generated_Source\PSoC5/I2C_MASTER.c **** ********************************************************************************
 155:.\Generated_Source\PSoC5/I2C_MASTER.c **** *
 156:.\Generated_Source\PSoC5/I2C_MASTER.c **** * Summary:
 157:.\Generated_Source\PSoC5/I2C_MASTER.c **** *  Automatically writes an entire buffer of data to a slave device. Once the
 158:.\Generated_Source\PSoC5/I2C_MASTER.c **** *  data transfer is initiated by this function, further data transfer is handled
 159:.\Generated_Source\PSoC5/I2C_MASTER.c **** *  by the included ISR in byte by byte mode.
 160:.\Generated_Source\PSoC5/I2C_MASTER.c **** *
 161:.\Generated_Source\PSoC5/I2C_MASTER.c **** * Parameters:
 162:.\Generated_Source\PSoC5/I2C_MASTER.c **** *  slaveAddr: 7-bit slave address.
 163:.\Generated_Source\PSoC5/I2C_MASTER.c **** *  xferData:  Pointer to buffer where to put data from slave.
 164:.\Generated_Source\PSoC5/I2C_MASTER.c **** *  cnt:       Size of buffer to read.
 165:.\Generated_Source\PSoC5/I2C_MASTER.c **** *  mode:      Transfer mode defines: start or restart condition generation at
 166:.\Generated_Source\PSoC5/I2C_MASTER.c **** *             begin of the transfer and complete the transfer or halt before
 167:.\Generated_Source\PSoC5/I2C_MASTER.c **** *             generating a stop.
 168:.\Generated_Source\PSoC5/I2C_MASTER.c **** *
 169:.\Generated_Source\PSoC5/I2C_MASTER.c **** * Return:
 170:.\Generated_Source\PSoC5/I2C_MASTER.c **** *  Status error - Zero means no errors.
 171:.\Generated_Source\PSoC5/I2C_MASTER.c **** *
ARM GAS  C:\Users\Eih3\AppData\Local\Temp\ccGBH7mu.s 			page 7


 172:.\Generated_Source\PSoC5/I2C_MASTER.c **** * Side Effects:
 173:.\Generated_Source\PSoC5/I2C_MASTER.c **** *  The included ISR will start a transfer after start or restart condition is
 174:.\Generated_Source\PSoC5/I2C_MASTER.c **** *  generated.
 175:.\Generated_Source\PSoC5/I2C_MASTER.c **** *
 176:.\Generated_Source\PSoC5/I2C_MASTER.c **** * Global variables:
 177:.\Generated_Source\PSoC5/I2C_MASTER.c **** *  I2C_mstrStatus  - The global variable used to store a current
 178:.\Generated_Source\PSoC5/I2C_MASTER.c **** *                                 status of the I2C Master.
 179:.\Generated_Source\PSoC5/I2C_MASTER.c **** *  I2C_state       - The global variable used to store a current
 180:.\Generated_Source\PSoC5/I2C_MASTER.c **** *                                 state of the software FSM.
 181:.\Generated_Source\PSoC5/I2C_MASTER.c **** *  I2C_mstrControl - The global variable used to control the master
 182:.\Generated_Source\PSoC5/I2C_MASTER.c **** *                                 end of a transaction with or without
 183:.\Generated_Source\PSoC5/I2C_MASTER.c **** *                                 Stop generation.
 184:.\Generated_Source\PSoC5/I2C_MASTER.c **** *  I2C_mstrRdBufPtr - The global variable used to store a pointer
 185:.\Generated_Source\PSoC5/I2C_MASTER.c **** *                                  to the master write buffer.
 186:.\Generated_Source\PSoC5/I2C_MASTER.c **** *  I2C_mstrRdBufIndex - The global variable  used to store a
 187:.\Generated_Source\PSoC5/I2C_MASTER.c **** *                                    current index within the master
 188:.\Generated_Source\PSoC5/I2C_MASTER.c **** *                                    write buffer.
 189:.\Generated_Source\PSoC5/I2C_MASTER.c **** *  I2C_mstrRdBufSize - The global variable used to store a master
 190:.\Generated_Source\PSoC5/I2C_MASTER.c **** *                                   write buffer size.
 191:.\Generated_Source\PSoC5/I2C_MASTER.c **** *
 192:.\Generated_Source\PSoC5/I2C_MASTER.c **** * Reentrant:
 193:.\Generated_Source\PSoC5/I2C_MASTER.c **** *  No.
 194:.\Generated_Source\PSoC5/I2C_MASTER.c **** *
 195:.\Generated_Source\PSoC5/I2C_MASTER.c **** *******************************************************************************/
 196:.\Generated_Source\PSoC5/I2C_MASTER.c **** uint8 I2C_MasterReadBuf(uint8 slaveAddress, uint8 * rdData, uint8 cnt, uint8 mode)
 197:.\Generated_Source\PSoC5/I2C_MASTER.c ****       
 198:.\Generated_Source\PSoC5/I2C_MASTER.c **** {
 164              		.loc 1 198 0
 165              		.cfi_startproc
 166              		@ args = 0, pretend = 0, frame = 0
 167              		@ frame_needed = 0, uses_anonymous_args = 0
 168              	.LVL14:
 169 0000 70B5     		push	{r4, r5, r6, lr}
 170              		.cfi_def_cfa_offset 16
 171              		.cfi_offset 4, -16
 172              		.cfi_offset 5, -12
 173              		.cfi_offset 6, -8
 174              		.cfi_offset 14, -4
 199:.\Generated_Source\PSoC5/I2C_MASTER.c ****     uint8 errStatus;
 200:.\Generated_Source\PSoC5/I2C_MASTER.c **** 
 201:.\Generated_Source\PSoC5/I2C_MASTER.c ****     errStatus = I2C_MSTR_NOT_READY;
 202:.\Generated_Source\PSoC5/I2C_MASTER.c **** 
 203:.\Generated_Source\PSoC5/I2C_MASTER.c ****     if(NULL != rdData)
 175              		.loc 1 203 0
 176 0002 B1B1     		cbz	r1, .L30
 204:.\Generated_Source\PSoC5/I2C_MASTER.c ****     {
 205:.\Generated_Source\PSoC5/I2C_MASTER.c ****         /* Check I2C state to allow transfer: valid states are IDLE or HALT */
 206:.\Generated_Source\PSoC5/I2C_MASTER.c ****         if(I2C_SM_IDLE == I2C_state)
 177              		.loc 1 206 0
 178 0004 1F4C     		ldr	r4, .L38
 179 0006 2578     		ldrb	r5, [r4]	@ zero_extendqisi2
 180 0008 102D     		cmp	r5, #16
 181 000a 05D1     		bne	.L23
 207:.\Generated_Source\PSoC5/I2C_MASTER.c ****         {
 208:.\Generated_Source\PSoC5/I2C_MASTER.c ****             /* Master is ready to transaction: check if bus is free */
 209:.\Generated_Source\PSoC5/I2C_MASTER.c ****             if(I2C_CHECK_BUS_FREE(I2C_MCSR_REG))
 182              		.loc 1 209 0
ARM GAS  C:\Users\Eih3\AppData\Local\Temp\ccGBH7mu.s 			page 8


 183 000c 1E4D     		ldr	r5, .L38+4
 184 000e 2D78     		ldrb	r5, [r5]	@ zero_extendqisi2
 185 0010 2D07     		lsls	r5, r5, #28
 186 0012 10D5     		bpl	.L24
 210:.\Generated_Source\PSoC5/I2C_MASTER.c ****             {
 211:.\Generated_Source\PSoC5/I2C_MASTER.c ****                 errStatus = I2C_MSTR_NO_ERROR;
 212:.\Generated_Source\PSoC5/I2C_MASTER.c ****             }
 213:.\Generated_Source\PSoC5/I2C_MASTER.c ****             else
 214:.\Generated_Source\PSoC5/I2C_MASTER.c ****             {
 215:.\Generated_Source\PSoC5/I2C_MASTER.c ****                 errStatus = I2C_MSTR_BUS_BUSY;
 187              		.loc 1 215 0
 188 0014 0120     		movs	r0, #1
 189              	.LVL15:
 190 0016 70BD     		pop	{r4, r5, r6, pc}
 191              	.LVL16:
 192              	.L23:
 216:.\Generated_Source\PSoC5/I2C_MASTER.c ****             }
 217:.\Generated_Source\PSoC5/I2C_MASTER.c ****         }
 218:.\Generated_Source\PSoC5/I2C_MASTER.c ****         else if(I2C_SM_MSTR_HALT == I2C_state)
 193              		.loc 1 218 0
 194 0018 2578     		ldrb	r5, [r4]	@ zero_extendqisi2
 195 001a 602D     		cmp	r5, #96
 196 001c 09D1     		bne	.L30
 197              	.LVL17:
 219:.\Generated_Source\PSoC5/I2C_MASTER.c ****         {
 220:.\Generated_Source\PSoC5/I2C_MASTER.c ****             /* Master is ready and waiting for ReStart */
 221:.\Generated_Source\PSoC5/I2C_MASTER.c ****             errStatus = I2C_MSTR_NO_ERROR;
 222:.\Generated_Source\PSoC5/I2C_MASTER.c **** 
 223:.\Generated_Source\PSoC5/I2C_MASTER.c ****             I2C_ClearPendingInt();
 198              		.loc 1 223 0
 199 001e 1B4D     		ldr	r5, .L38+8
 200 0020 4FF40046 		mov	r6, #32768
 201 0024 2E60     		str	r6, [r5]
 224:.\Generated_Source\PSoC5/I2C_MASTER.c ****             I2C_mstrStatus &= (uint8) ~I2C_MSTAT_XFER_HALT;
 202              		.loc 1 224 0
 203 0026 1A4D     		ldr	r5, .L38+12
 204 0028 2E78     		ldrb	r6, [r5]	@ zero_extendqisi2
 205 002a 06F0F706 		and	r6, r6, #247
 206 002e 2E70     		strb	r6, [r5]
 207 0030 01E0     		b	.L24
 208              	.LVL18:
 209              	.L30:
 201:.\Generated_Source\PSoC5/I2C_MASTER.c ****     errStatus = I2C_MSTR_NOT_READY;
 210              		.loc 1 201 0
 211 0032 0220     		movs	r0, #2
 212              	.LVL19:
 213 0034 70BD     		pop	{r4, r5, r6, pc}
 214              	.LVL20:
 215              	.L24:
 225:.\Generated_Source\PSoC5/I2C_MASTER.c ****         }
 226:.\Generated_Source\PSoC5/I2C_MASTER.c ****         else
 227:.\Generated_Source\PSoC5/I2C_MASTER.c ****         {
 228:.\Generated_Source\PSoC5/I2C_MASTER.c ****             /* errStatus = I2C_MSTR_NOT_READY was set before */
 229:.\Generated_Source\PSoC5/I2C_MASTER.c ****         }
 230:.\Generated_Source\PSoC5/I2C_MASTER.c **** 
 231:.\Generated_Source\PSoC5/I2C_MASTER.c ****         if(I2C_MSTR_NO_ERROR == errStatus)
 232:.\Generated_Source\PSoC5/I2C_MASTER.c ****         {
ARM GAS  C:\Users\Eih3\AppData\Local\Temp\ccGBH7mu.s 			page 9


 233:.\Generated_Source\PSoC5/I2C_MASTER.c ****             /* Set state to start write transaction */
 234:.\Generated_Source\PSoC5/I2C_MASTER.c ****             I2C_state = I2C_SM_MSTR_RD_ADDR;
 216              		.loc 1 234 0
 217 0036 4925     		movs	r5, #73
 218 0038 2570     		strb	r5, [r4]
 235:.\Generated_Source\PSoC5/I2C_MASTER.c **** 
 236:.\Generated_Source\PSoC5/I2C_MASTER.c ****             /* Prepare read buffer */
 237:.\Generated_Source\PSoC5/I2C_MASTER.c ****             I2C_mstrRdBufIndex  = 0u;
 219              		.loc 1 237 0
 220 003a 164C     		ldr	r4, .L38+16
 221 003c 0025     		movs	r5, #0
 222 003e 2570     		strb	r5, [r4]
 238:.\Generated_Source\PSoC5/I2C_MASTER.c ****             I2C_mstrRdBufSize   = cnt;
 223              		.loc 1 238 0
 224 0040 154C     		ldr	r4, .L38+20
 239:.\Generated_Source\PSoC5/I2C_MASTER.c ****             I2C_mstrRdBufPtr    = (volatile uint8 *) rdData;
 240:.\Generated_Source\PSoC5/I2C_MASTER.c **** 
 241:.\Generated_Source\PSoC5/I2C_MASTER.c ****             /* Set end of transaction flag: Stop or Halt (following ReStart) */
 242:.\Generated_Source\PSoC5/I2C_MASTER.c ****             I2C_mstrControl = mode;
 243:.\Generated_Source\PSoC5/I2C_MASTER.c **** 
 244:.\Generated_Source\PSoC5/I2C_MASTER.c ****             /* Clear read status history */
 245:.\Generated_Source\PSoC5/I2C_MASTER.c ****             I2C_mstrStatus &= (uint8) ~I2C_MSTAT_RD_CMPLT;
 246:.\Generated_Source\PSoC5/I2C_MASTER.c **** 
 247:.\Generated_Source\PSoC5/I2C_MASTER.c ****             /* Hardware actions: write address and generate Start or ReStart */
 248:.\Generated_Source\PSoC5/I2C_MASTER.c ****             I2C_DATA_REG = ((uint8) (slaveAddress << I2C_SLAVE_ADDR_SHIFT) |
 225              		.loc 1 248 0
 226 0042 4000     		lsls	r0, r0, #1
 227              	.LVL21:
 238:.\Generated_Source\PSoC5/I2C_MASTER.c ****             I2C_mstrRdBufSize   = cnt;
 228              		.loc 1 238 0
 229 0044 2270     		strb	r2, [r4]
 239:.\Generated_Source\PSoC5/I2C_MASTER.c ****             I2C_mstrRdBufPtr    = (volatile uint8 *) rdData;
 230              		.loc 1 239 0
 231 0046 154A     		ldr	r2, .L38+24
 232              	.LVL22:
 233              		.loc 1 248 0
 234 0048 40F00100 		orr	r0, r0, #1
 239:.\Generated_Source\PSoC5/I2C_MASTER.c ****             I2C_mstrRdBufPtr    = (volatile uint8 *) rdData;
 235              		.loc 1 239 0
 236 004c 1160     		str	r1, [r2]
 242:.\Generated_Source\PSoC5/I2C_MASTER.c ****             I2C_mstrControl = mode;
 237              		.loc 1 242 0
 238 004e 144A     		ldr	r2, .L38+28
 239              		.loc 1 248 0
 240 0050 C0B2     		uxtb	r0, r0
 242:.\Generated_Source\PSoC5/I2C_MASTER.c ****             I2C_mstrControl = mode;
 241              		.loc 1 242 0
 242 0052 1370     		strb	r3, [r2]
 243              	.LVL23:
 245:.\Generated_Source\PSoC5/I2C_MASTER.c ****             I2C_mstrStatus &= (uint8) ~I2C_MSTAT_RD_CMPLT;
 244              		.loc 1 245 0
 245 0054 0E4A     		ldr	r2, .L38+12
 249:.\Generated_Source\PSoC5/I2C_MASTER.c ****                                                   I2C_READ_FLAG);
 250:.\Generated_Source\PSoC5/I2C_MASTER.c **** 
 251:.\Generated_Source\PSoC5/I2C_MASTER.c ****             if(I2C_CHECK_RESTART(mode))
 246              		.loc 1 251 0
 247 0056 13F0010F 		tst	r3, #1
ARM GAS  C:\Users\Eih3\AppData\Local\Temp\ccGBH7mu.s 			page 10


 245:.\Generated_Source\PSoC5/I2C_MASTER.c ****             I2C_mstrStatus &= (uint8) ~I2C_MSTAT_RD_CMPLT;
 248              		.loc 1 245 0
 249 005a 1178     		ldrb	r1, [r2]	@ zero_extendqisi2
 250              	.LVL24:
 251 005c 0A4B     		ldr	r3, .L38+4
 252              	.LVL25:
 253 005e 01F0FE01 		and	r1, r1, #254
 254 0062 1170     		strb	r1, [r2]
 255              	.LVL26:
 248:.\Generated_Source\PSoC5/I2C_MASTER.c ****             I2C_DATA_REG = ((uint8) (slaveAddress << I2C_SLAVE_ADDR_SHIFT) |
 256              		.loc 1 248 0
 257 0064 0F4A     		ldr	r2, .L38+32
 258 0066 1070     		strb	r0, [r2]
 259              	.LVL27:
 260              		.loc 1 251 0
 261 0068 04D0     		beq	.L37
 252:.\Generated_Source\PSoC5/I2C_MASTER.c ****             {
 253:.\Generated_Source\PSoC5/I2C_MASTER.c ****                 I2C_GENERATE_RESTART;
 262              		.loc 1 253 0
 263 006a 1222     		movs	r2, #18
 264 006c 1A70     		strb	r2, [r3]
 265 006e 0422     		movs	r2, #4
 266 0070 0D4B     		ldr	r3, .L38+36
 267 0072 00E0     		b	.L36
 268              	.L37:
 254:.\Generated_Source\PSoC5/I2C_MASTER.c ****             }
 255:.\Generated_Source\PSoC5/I2C_MASTER.c ****             else
 256:.\Generated_Source\PSoC5/I2C_MASTER.c ****             {
 257:.\Generated_Source\PSoC5/I2C_MASTER.c ****                 I2C_GENERATE_START;
 269              		.loc 1 257 0
 270 0074 0122     		movs	r2, #1
 271              	.L36:
 272 0076 1A70     		strb	r2, [r3]
 258:.\Generated_Source\PSoC5/I2C_MASTER.c ****             }
 259:.\Generated_Source\PSoC5/I2C_MASTER.c **** 
 260:.\Generated_Source\PSoC5/I2C_MASTER.c ****             /* Enable interrupt to complete transfer */
 261:.\Generated_Source\PSoC5/I2C_MASTER.c ****             I2C_EnableInt();
 273              		.loc 1 261 0
 274 0078 0C4B     		ldr	r3, .L38+40
 275 007a 4FF40042 		mov	r2, #32768
 276 007e 1A60     		str	r2, [r3]
 277 0080 0020     		movs	r0, #0
 278 0082 70BD     		pop	{r4, r5, r6, pc}
 279              	.L39:
 280              		.align	2
 281              	.L38:
 282 0084 00000000 		.word	I2C_state
 283 0088 D9490040 		.word	1073760729
 284 008c 80E200E0 		.word	-536812928
 285 0090 00000000 		.word	I2C_mstrStatus
 286 0094 00000000 		.word	I2C_mstrRdBufIndex
 287 0098 00000000 		.word	I2C_mstrRdBufSize
 288 009c 00000000 		.word	I2C_mstrRdBufPtr
 289 00a0 00000000 		.word	I2C_mstrControl
 290 00a4 D8490040 		.word	1073760728
 291 00a8 D7490040 		.word	1073760727
 292 00ac 00E100E0 		.word	-536813312
ARM GAS  C:\Users\Eih3\AppData\Local\Temp\ccGBH7mu.s 			page 11


 293              		.cfi_endproc
 294              	.LFE1:
 295              		.size	I2C_MasterReadBuf, .-I2C_MasterReadBuf
 296              		.section	.text.I2C_MasterSendStart,"ax",%progbits
 297              		.align	1
 298              		.global	I2C_MasterSendStart
 299              		.thumb
 300              		.thumb_func
 301              		.type	I2C_MasterSendStart, %function
 302              	I2C_MasterSendStart:
 303              	.LFB2:
 262:.\Generated_Source\PSoC5/I2C_MASTER.c ****         }
 263:.\Generated_Source\PSoC5/I2C_MASTER.c ****     }
 264:.\Generated_Source\PSoC5/I2C_MASTER.c **** 
 265:.\Generated_Source\PSoC5/I2C_MASTER.c ****     return(errStatus);
 266:.\Generated_Source\PSoC5/I2C_MASTER.c **** }
 267:.\Generated_Source\PSoC5/I2C_MASTER.c **** 
 268:.\Generated_Source\PSoC5/I2C_MASTER.c **** 
 269:.\Generated_Source\PSoC5/I2C_MASTER.c **** /*******************************************************************************
 270:.\Generated_Source\PSoC5/I2C_MASTER.c **** * Function Name: I2C_MasterSendStart
 271:.\Generated_Source\PSoC5/I2C_MASTER.c **** ********************************************************************************
 272:.\Generated_Source\PSoC5/I2C_MASTER.c **** *
 273:.\Generated_Source\PSoC5/I2C_MASTER.c **** * Summary:
 274:.\Generated_Source\PSoC5/I2C_MASTER.c **** *  Generates Start condition and sends slave address with read/write bit.
 275:.\Generated_Source\PSoC5/I2C_MASTER.c **** *
 276:.\Generated_Source\PSoC5/I2C_MASTER.c **** * Parameters:
 277:.\Generated_Source\PSoC5/I2C_MASTER.c **** *  slaveAddress:  7-bit slave address.
 278:.\Generated_Source\PSoC5/I2C_MASTER.c **** *  R_nW:          Zero, send write command, non-zero send read command.
 279:.\Generated_Source\PSoC5/I2C_MASTER.c **** *
 280:.\Generated_Source\PSoC5/I2C_MASTER.c **** * Return:
 281:.\Generated_Source\PSoC5/I2C_MASTER.c **** *  Status error - Zero means no errors.
 282:.\Generated_Source\PSoC5/I2C_MASTER.c **** *
 283:.\Generated_Source\PSoC5/I2C_MASTER.c **** * Side Effects:
 284:.\Generated_Source\PSoC5/I2C_MASTER.c **** *  This function is entered without a "byte complete" bit set in the I2C_CSR
 285:.\Generated_Source\PSoC5/I2C_MASTER.c **** *  register. It does not exit until it is set.
 286:.\Generated_Source\PSoC5/I2C_MASTER.c **** *
 287:.\Generated_Source\PSoC5/I2C_MASTER.c **** * Global variables:
 288:.\Generated_Source\PSoC5/I2C_MASTER.c **** *  I2C_state - The global variable used to store a current state of
 289:.\Generated_Source\PSoC5/I2C_MASTER.c **** *                           the software FSM.
 290:.\Generated_Source\PSoC5/I2C_MASTER.c **** *
 291:.\Generated_Source\PSoC5/I2C_MASTER.c **** * Reentrant:
 292:.\Generated_Source\PSoC5/I2C_MASTER.c **** *  No.
 293:.\Generated_Source\PSoC5/I2C_MASTER.c **** *
 294:.\Generated_Source\PSoC5/I2C_MASTER.c **** *******************************************************************************/
 295:.\Generated_Source\PSoC5/I2C_MASTER.c **** uint8 I2C_MasterSendStart(uint8 slaveAddress, uint8 R_nW)
 296:.\Generated_Source\PSoC5/I2C_MASTER.c ****       
 297:.\Generated_Source\PSoC5/I2C_MASTER.c **** {
 304              		.loc 1 297 0
 305              		.cfi_startproc
 306              		@ args = 0, pretend = 0, frame = 0
 307              		@ frame_needed = 0, uses_anonymous_args = 0
 308              	.LVL28:
 309 0000 30B5     		push	{r4, r5, lr}
 310              		.cfi_def_cfa_offset 12
 311              		.cfi_offset 4, -12
 312              		.cfi_offset 5, -8
 313              		.cfi_offset 14, -4
ARM GAS  C:\Users\Eih3\AppData\Local\Temp\ccGBH7mu.s 			page 12


 298:.\Generated_Source\PSoC5/I2C_MASTER.c ****     uint8 errStatus;
 299:.\Generated_Source\PSoC5/I2C_MASTER.c **** 
 300:.\Generated_Source\PSoC5/I2C_MASTER.c ****     errStatus = I2C_MSTR_NOT_READY;
 301:.\Generated_Source\PSoC5/I2C_MASTER.c **** 
 302:.\Generated_Source\PSoC5/I2C_MASTER.c ****     /* If IDLE, check if bus is free */
 303:.\Generated_Source\PSoC5/I2C_MASTER.c ****     if(I2C_SM_IDLE == I2C_state)
 314              		.loc 1 303 0
 315 0002 164B     		ldr	r3, .L50
 316 0004 1A78     		ldrb	r2, [r3]	@ zero_extendqisi2
 317 0006 102A     		cmp	r2, #16
 318 0008 21D1     		bne	.L46
 304:.\Generated_Source\PSoC5/I2C_MASTER.c ****     {
 305:.\Generated_Source\PSoC5/I2C_MASTER.c ****         /* If bus is free, generate Start condition */
 306:.\Generated_Source\PSoC5/I2C_MASTER.c ****         if(I2C_CHECK_BUS_FREE(I2C_MCSR_REG))
 319              		.loc 1 306 0
 320 000a 154A     		ldr	r2, .L50+4
 321 000c 1478     		ldrb	r4, [r2]	@ zero_extendqisi2
 322 000e 2407     		lsls	r4, r4, #28
 323 0010 1FD4     		bmi	.L47
 307:.\Generated_Source\PSoC5/I2C_MASTER.c ****         {
 308:.\Generated_Source\PSoC5/I2C_MASTER.c ****             /* Disable interrupt for manual master operation */
 309:.\Generated_Source\PSoC5/I2C_MASTER.c ****             I2C_DisableInt();
 324              		.loc 1 309 0
 325 0012 144C     		ldr	r4, .L50+8
 326 0014 4FF40045 		mov	r5, #32768
 310:.\Generated_Source\PSoC5/I2C_MASTER.c **** 
 311:.\Generated_Source\PSoC5/I2C_MASTER.c ****             /* Set address and read/write flag */
 312:.\Generated_Source\PSoC5/I2C_MASTER.c ****             slaveAddress = (uint8) (slaveAddress << I2C_SLAVE_ADDR_SHIFT);
 327              		.loc 1 312 0
 328 0018 4000     		lsls	r0, r0, #1
 329              	.LVL29:
 309:.\Generated_Source\PSoC5/I2C_MASTER.c ****             I2C_DisableInt();
 330              		.loc 1 309 0
 331 001a 2560     		str	r5, [r4]
 332              		.loc 1 312 0
 333 001c C0B2     		uxtb	r0, r0
 334              	.LVL30:
 313:.\Generated_Source\PSoC5/I2C_MASTER.c ****             if(0u != R_nW)
 335              		.loc 1 313 0
 336 001e 19B1     		cbz	r1, .L42
 314:.\Generated_Source\PSoC5/I2C_MASTER.c ****             {
 315:.\Generated_Source\PSoC5/I2C_MASTER.c ****                 slaveAddress |= I2C_READ_FLAG;
 337              		.loc 1 315 0
 338 0020 40F00100 		orr	r0, r0, #1
 339              	.LVL31:
 316:.\Generated_Source\PSoC5/I2C_MASTER.c ****                 I2C_state = I2C_SM_MSTR_RD_ADDR;
 340              		.loc 1 316 0
 341 0024 4921     		movs	r1, #73
 342              	.LVL32:
 343 0026 00E0     		b	.L49
 344              	.LVL33:
 345              	.L42:
 317:.\Generated_Source\PSoC5/I2C_MASTER.c ****             }
 318:.\Generated_Source\PSoC5/I2C_MASTER.c ****             else
 319:.\Generated_Source\PSoC5/I2C_MASTER.c ****             {
 320:.\Generated_Source\PSoC5/I2C_MASTER.c ****                 I2C_state = I2C_SM_MSTR_WR_ADDR;
 346              		.loc 1 320 0
ARM GAS  C:\Users\Eih3\AppData\Local\Temp\ccGBH7mu.s 			page 13


 347 0028 4521     		movs	r1, #69
 348              	.LVL34:
 349              	.L49:
 350 002a 1970     		strb	r1, [r3]
 351              	.LVL35:
 321:.\Generated_Source\PSoC5/I2C_MASTER.c ****             }
 322:.\Generated_Source\PSoC5/I2C_MASTER.c **** 
 323:.\Generated_Source\PSoC5/I2C_MASTER.c ****             /* Hardware actions: write address and generate Start */
 324:.\Generated_Source\PSoC5/I2C_MASTER.c ****             I2C_DATA_REG = slaveAddress;
 352              		.loc 1 324 0
 353 002c 0E49     		ldr	r1, .L50+12
 354 002e 0870     		strb	r0, [r1]
 325:.\Generated_Source\PSoC5/I2C_MASTER.c ****             I2C_GENERATE_START;
 355              		.loc 1 325 0
 356 0030 0121     		movs	r1, #1
 357 0032 1170     		strb	r1, [r2]
 358              	.L45:
 326:.\Generated_Source\PSoC5/I2C_MASTER.c **** 
 327:.\Generated_Source\PSoC5/I2C_MASTER.c ****             /* Wait until address is transferred */
 328:.\Generated_Source\PSoC5/I2C_MASTER.c ****             while(I2C_WAIT_BYTE_COMPLETE(I2C_CSR_REG))
 359              		.loc 1 328 0 discriminator 1
 360 0034 0D4A     		ldr	r2, .L50+16
 361 0036 1178     		ldrb	r1, [r2]	@ zero_extendqisi2
 362 0038 C907     		lsls	r1, r1, #31
 363 003a FBD5     		bpl	.L45
 329:.\Generated_Source\PSoC5/I2C_MASTER.c ****             {
 330:.\Generated_Source\PSoC5/I2C_MASTER.c ****             }
 331:.\Generated_Source\PSoC5/I2C_MASTER.c **** 
 332:.\Generated_Source\PSoC5/I2C_MASTER.c ****         #if(I2C_MODE_MULTI_MASTER_SLAVE_ENABLED)
 333:.\Generated_Source\PSoC5/I2C_MASTER.c ****             if(I2C_CHECK_START_GEN(I2C_MCSR_REG))
 334:.\Generated_Source\PSoC5/I2C_MASTER.c ****             {
 335:.\Generated_Source\PSoC5/I2C_MASTER.c ****                 I2C_CLEAR_START_GEN;
 336:.\Generated_Source\PSoC5/I2C_MASTER.c **** 
 337:.\Generated_Source\PSoC5/I2C_MASTER.c ****                 /* Start condition was not generated: reset FSM to IDLE */
 338:.\Generated_Source\PSoC5/I2C_MASTER.c ****                 I2C_state = I2C_SM_IDLE;
 339:.\Generated_Source\PSoC5/I2C_MASTER.c ****                 errStatus = I2C_MSTR_ERR_ABORT_START_GEN;
 340:.\Generated_Source\PSoC5/I2C_MASTER.c ****             }
 341:.\Generated_Source\PSoC5/I2C_MASTER.c ****             else
 342:.\Generated_Source\PSoC5/I2C_MASTER.c ****         #endif /* (I2C_MODE_MULTI_MASTER_SLAVE_ENABLED) */
 343:.\Generated_Source\PSoC5/I2C_MASTER.c **** 
 344:.\Generated_Source\PSoC5/I2C_MASTER.c ****         #if(I2C_MODE_MULTI_MASTER_ENABLED)
 345:.\Generated_Source\PSoC5/I2C_MASTER.c ****             if(I2C_CHECK_LOST_ARB(I2C_CSR_REG))
 346:.\Generated_Source\PSoC5/I2C_MASTER.c ****             {
 347:.\Generated_Source\PSoC5/I2C_MASTER.c ****                 I2C_BUS_RELEASE;
 348:.\Generated_Source\PSoC5/I2C_MASTER.c **** 
 349:.\Generated_Source\PSoC5/I2C_MASTER.c ****                 /* Master lost arbitrage: reset FSM to IDLE */
 350:.\Generated_Source\PSoC5/I2C_MASTER.c ****                 I2C_state = I2C_SM_IDLE;
 351:.\Generated_Source\PSoC5/I2C_MASTER.c ****                 errStatus = I2C_MSTR_ERR_ARB_LOST;
 352:.\Generated_Source\PSoC5/I2C_MASTER.c ****             }
 353:.\Generated_Source\PSoC5/I2C_MASTER.c ****             else
 354:.\Generated_Source\PSoC5/I2C_MASTER.c ****         #endif /* (I2C_MODE_MULTI_MASTER_ENABLED) */
 355:.\Generated_Source\PSoC5/I2C_MASTER.c **** 
 356:.\Generated_Source\PSoC5/I2C_MASTER.c ****             if(I2C_CHECK_ADDR_NAK(I2C_CSR_REG))
 364              		.loc 1 356 0
 365 003c 1278     		ldrb	r2, [r2]	@ zero_extendqisi2
 366 003e 02F00A02 		and	r2, r2, #10
 367 0042 0A2A     		cmp	r2, #10
ARM GAS  C:\Users\Eih3\AppData\Local\Temp\ccGBH7mu.s 			page 14


 368 0044 07D1     		bne	.L48
 357:.\Generated_Source\PSoC5/I2C_MASTER.c ****             {
 358:.\Generated_Source\PSoC5/I2C_MASTER.c ****                 /* Address has been NACKed: reset FSM to IDLE */
 359:.\Generated_Source\PSoC5/I2C_MASTER.c ****                 I2C_state = I2C_SM_IDLE;
 369              		.loc 1 359 0
 370 0046 1022     		movs	r2, #16
 371 0048 1A70     		strb	r2, [r3]
 372              	.LVL36:
 360:.\Generated_Source\PSoC5/I2C_MASTER.c ****                 errStatus = I2C_MSTR_ERR_LB_NAK;
 373              		.loc 1 360 0
 374 004a 0320     		movs	r0, #3
 375              	.LVL37:
 376 004c 30BD     		pop	{r4, r5, pc}
 377              	.LVL38:
 378              	.L46:
 300:.\Generated_Source\PSoC5/I2C_MASTER.c ****     errStatus = I2C_MSTR_NOT_READY;
 379              		.loc 1 300 0
 380 004e 0220     		movs	r0, #2
 381              	.LVL39:
 382 0050 30BD     		pop	{r4, r5, pc}
 383              	.LVL40:
 384              	.L47:
 361:.\Generated_Source\PSoC5/I2C_MASTER.c ****             }
 362:.\Generated_Source\PSoC5/I2C_MASTER.c ****             else
 363:.\Generated_Source\PSoC5/I2C_MASTER.c ****             {
 364:.\Generated_Source\PSoC5/I2C_MASTER.c ****                 /* Start was sent without errors */
 365:.\Generated_Source\PSoC5/I2C_MASTER.c ****                 errStatus = I2C_MSTR_NO_ERROR;
 366:.\Generated_Source\PSoC5/I2C_MASTER.c ****             }
 367:.\Generated_Source\PSoC5/I2C_MASTER.c ****         }
 368:.\Generated_Source\PSoC5/I2C_MASTER.c ****         else
 369:.\Generated_Source\PSoC5/I2C_MASTER.c ****         {
 370:.\Generated_Source\PSoC5/I2C_MASTER.c ****             errStatus = I2C_MSTR_BUS_BUSY;
 385              		.loc 1 370 0
 386 0052 0120     		movs	r0, #1
 387              	.LVL41:
 388 0054 30BD     		pop	{r4, r5, pc}
 389              	.LVL42:
 390              	.L48:
 365:.\Generated_Source\PSoC5/I2C_MASTER.c ****                 errStatus = I2C_MSTR_NO_ERROR;
 391              		.loc 1 365 0
 392 0056 0020     		movs	r0, #0
 393              	.LVL43:
 371:.\Generated_Source\PSoC5/I2C_MASTER.c ****         }
 372:.\Generated_Source\PSoC5/I2C_MASTER.c ****     }
 373:.\Generated_Source\PSoC5/I2C_MASTER.c **** 
 374:.\Generated_Source\PSoC5/I2C_MASTER.c ****     return(errStatus);
 375:.\Generated_Source\PSoC5/I2C_MASTER.c **** }
 394              		.loc 1 375 0
 395 0058 30BD     		pop	{r4, r5, pc}
 396              	.L51:
 397 005a 00BF     		.align	2
 398              	.L50:
 399 005c 00000000 		.word	I2C_state
 400 0060 D9490040 		.word	1073760729
 401 0064 80E100E0 		.word	-536813184
 402 0068 D8490040 		.word	1073760728
 403 006c D7490040 		.word	1073760727
ARM GAS  C:\Users\Eih3\AppData\Local\Temp\ccGBH7mu.s 			page 15


 404              		.cfi_endproc
 405              	.LFE2:
 406              		.size	I2C_MasterSendStart, .-I2C_MasterSendStart
 407              		.section	.text.I2C_MasterSendRestart,"ax",%progbits
 408              		.align	1
 409              		.global	I2C_MasterSendRestart
 410              		.thumb
 411              		.thumb_func
 412              		.type	I2C_MasterSendRestart, %function
 413              	I2C_MasterSendRestart:
 414              	.LFB3:
 376:.\Generated_Source\PSoC5/I2C_MASTER.c **** 
 377:.\Generated_Source\PSoC5/I2C_MASTER.c **** 
 378:.\Generated_Source\PSoC5/I2C_MASTER.c **** /*******************************************************************************
 379:.\Generated_Source\PSoC5/I2C_MASTER.c **** * Function Name: I2C_MasterSendRestart
 380:.\Generated_Source\PSoC5/I2C_MASTER.c **** ********************************************************************************
 381:.\Generated_Source\PSoC5/I2C_MASTER.c **** *
 382:.\Generated_Source\PSoC5/I2C_MASTER.c **** * Summary:
 383:.\Generated_Source\PSoC5/I2C_MASTER.c **** *  Generates ReStart condition and sends slave address with read/write bit.
 384:.\Generated_Source\PSoC5/I2C_MASTER.c **** *
 385:.\Generated_Source\PSoC5/I2C_MASTER.c **** * Parameters:
 386:.\Generated_Source\PSoC5/I2C_MASTER.c **** *  slaveAddress:  7-bit slave address.
 387:.\Generated_Source\PSoC5/I2C_MASTER.c **** *  R_nW:          Zero, send write command, non-zero send read command.
 388:.\Generated_Source\PSoC5/I2C_MASTER.c **** *
 389:.\Generated_Source\PSoC5/I2C_MASTER.c **** * Return:
 390:.\Generated_Source\PSoC5/I2C_MASTER.c **** *  Status error - Zero means no errors.
 391:.\Generated_Source\PSoC5/I2C_MASTER.c **** *
 392:.\Generated_Source\PSoC5/I2C_MASTER.c **** * Side Effects:
 393:.\Generated_Source\PSoC5/I2C_MASTER.c **** *  This function is entered without a "byte complete" bit set in the I2C_CSR
 394:.\Generated_Source\PSoC5/I2C_MASTER.c **** *  register. It does not exit until it is set.
 395:.\Generated_Source\PSoC5/I2C_MASTER.c **** *
 396:.\Generated_Source\PSoC5/I2C_MASTER.c **** * Global variables:
 397:.\Generated_Source\PSoC5/I2C_MASTER.c **** *  I2C_state - The global variable used to store a current state of
 398:.\Generated_Source\PSoC5/I2C_MASTER.c **** *                           the software FSM.
 399:.\Generated_Source\PSoC5/I2C_MASTER.c **** *
 400:.\Generated_Source\PSoC5/I2C_MASTER.c **** * Reentrant:
 401:.\Generated_Source\PSoC5/I2C_MASTER.c **** *  No.
 402:.\Generated_Source\PSoC5/I2C_MASTER.c **** *
 403:.\Generated_Source\PSoC5/I2C_MASTER.c **** *******************************************************************************/
 404:.\Generated_Source\PSoC5/I2C_MASTER.c **** uint8 I2C_MasterSendRestart(uint8 slaveAddress, uint8 R_nW)
 405:.\Generated_Source\PSoC5/I2C_MASTER.c ****       
 406:.\Generated_Source\PSoC5/I2C_MASTER.c **** {
 415              		.loc 1 406 0
 416              		.cfi_startproc
 417              		@ args = 0, pretend = 0, frame = 0
 418              		@ frame_needed = 0, uses_anonymous_args = 0
 419              		@ link register save eliminated.
 420              	.LVL44:
 407:.\Generated_Source\PSoC5/I2C_MASTER.c ****     uint8 errStatus;
 408:.\Generated_Source\PSoC5/I2C_MASTER.c **** 
 409:.\Generated_Source\PSoC5/I2C_MASTER.c ****     errStatus = I2C_MSTR_NOT_READY;
 410:.\Generated_Source\PSoC5/I2C_MASTER.c **** 
 411:.\Generated_Source\PSoC5/I2C_MASTER.c ****     /* Check if START condition was generated */
 412:.\Generated_Source\PSoC5/I2C_MASTER.c ****     if(I2C_CHECK_MASTER_MODE(I2C_MCSR_REG))
 421              		.loc 1 412 0
 422 0000 134B     		ldr	r3, .L61
 423 0002 1A78     		ldrb	r2, [r3]	@ zero_extendqisi2
ARM GAS  C:\Users\Eih3\AppData\Local\Temp\ccGBH7mu.s 			page 16


 424 0004 12F0040F 		tst	r2, #4
 425 0008 1A46     		mov	r2, r3
 426 000a 1DD0     		beq	.L58
 413:.\Generated_Source\PSoC5/I2C_MASTER.c ****     {
 414:.\Generated_Source\PSoC5/I2C_MASTER.c ****         /* Set address and read/write flag */
 415:.\Generated_Source\PSoC5/I2C_MASTER.c ****         slaveAddress = (uint8) (slaveAddress << I2C_SLAVE_ADDR_SHIFT);
 427              		.loc 1 415 0
 428 000c 4000     		lsls	r0, r0, #1
 429              	.LVL45:
 430 000e C0B2     		uxtb	r0, r0
 431              	.LVL46:
 432 0010 104B     		ldr	r3, .L61+4
 416:.\Generated_Source\PSoC5/I2C_MASTER.c ****         if(0u != R_nW)
 433              		.loc 1 416 0
 434 0012 19B1     		cbz	r1, .L54
 417:.\Generated_Source\PSoC5/I2C_MASTER.c ****         {
 418:.\Generated_Source\PSoC5/I2C_MASTER.c ****             slaveAddress |= I2C_READ_FLAG;
 435              		.loc 1 418 0
 436 0014 40F00100 		orr	r0, r0, #1
 437              	.LVL47:
 419:.\Generated_Source\PSoC5/I2C_MASTER.c ****             I2C_state = I2C_SM_MSTR_RD_ADDR;
 438              		.loc 1 419 0
 439 0018 4921     		movs	r1, #73
 440              	.LVL48:
 441 001a 00E0     		b	.L60
 442              	.LVL49:
 443              	.L54:
 420:.\Generated_Source\PSoC5/I2C_MASTER.c ****         }
 421:.\Generated_Source\PSoC5/I2C_MASTER.c ****         else
 422:.\Generated_Source\PSoC5/I2C_MASTER.c ****         {
 423:.\Generated_Source\PSoC5/I2C_MASTER.c ****             I2C_state = I2C_SM_MSTR_WR_ADDR;
 444              		.loc 1 423 0
 445 001c 4521     		movs	r1, #69
 446              	.LVL50:
 447              	.L60:
 448 001e 1970     		strb	r1, [r3]
 449              	.LVL51:
 424:.\Generated_Source\PSoC5/I2C_MASTER.c ****         }
 425:.\Generated_Source\PSoC5/I2C_MASTER.c **** 
 426:.\Generated_Source\PSoC5/I2C_MASTER.c ****         /* Hardware actions: write address and generate ReStart */
 427:.\Generated_Source\PSoC5/I2C_MASTER.c ****         I2C_DATA_REG = slaveAddress;
 450              		.loc 1 427 0
 451 0020 0D49     		ldr	r1, .L61+8
 452 0022 0870     		strb	r0, [r1]
 428:.\Generated_Source\PSoC5/I2C_MASTER.c ****         I2C_GENERATE_RESTART_MANUAL;
 453              		.loc 1 428 0
 454 0024 1221     		movs	r1, #18
 455 0026 1170     		strb	r1, [r2]
 456 0028 0C4A     		ldr	r2, .L61+12
 457 002a 0421     		movs	r1, #4
 458 002c 1170     		strb	r1, [r2]
 459              	.L57:
 429:.\Generated_Source\PSoC5/I2C_MASTER.c **** 
 430:.\Generated_Source\PSoC5/I2C_MASTER.c ****         /* Wait until address has been transferred */
 431:.\Generated_Source\PSoC5/I2C_MASTER.c ****         while(I2C_WAIT_BYTE_COMPLETE(I2C_CSR_REG))
 460              		.loc 1 431 0 discriminator 1
 461 002e 1178     		ldrb	r1, [r2]	@ zero_extendqisi2
ARM GAS  C:\Users\Eih3\AppData\Local\Temp\ccGBH7mu.s 			page 17


 462 0030 C907     		lsls	r1, r1, #31
 463 0032 FCD5     		bpl	.L57
 432:.\Generated_Source\PSoC5/I2C_MASTER.c ****         {
 433:.\Generated_Source\PSoC5/I2C_MASTER.c ****         }
 434:.\Generated_Source\PSoC5/I2C_MASTER.c **** 
 435:.\Generated_Source\PSoC5/I2C_MASTER.c ****     #if(I2C_MODE_MULTI_MASTER_ENABLED)
 436:.\Generated_Source\PSoC5/I2C_MASTER.c ****         if(I2C_CHECK_LOST_ARB(I2C_CSR_REG))
 437:.\Generated_Source\PSoC5/I2C_MASTER.c ****         {
 438:.\Generated_Source\PSoC5/I2C_MASTER.c ****             I2C_BUS_RELEASE;
 439:.\Generated_Source\PSoC5/I2C_MASTER.c **** 
 440:.\Generated_Source\PSoC5/I2C_MASTER.c ****             /* Master lost arbitrage: reset FSM to IDLE */
 441:.\Generated_Source\PSoC5/I2C_MASTER.c ****             I2C_state = I2C_SM_IDLE;
 442:.\Generated_Source\PSoC5/I2C_MASTER.c ****             errStatus = I2C_MSTR_ERR_ARB_LOST;
 443:.\Generated_Source\PSoC5/I2C_MASTER.c ****         }
 444:.\Generated_Source\PSoC5/I2C_MASTER.c ****         else
 445:.\Generated_Source\PSoC5/I2C_MASTER.c ****     #endif /* (I2C_MODE_MULTI_MASTER_ENABLED) */
 446:.\Generated_Source\PSoC5/I2C_MASTER.c **** 
 447:.\Generated_Source\PSoC5/I2C_MASTER.c ****         if(I2C_CHECK_ADDR_NAK(I2C_CSR_REG))
 464              		.loc 1 447 0
 465 0034 094A     		ldr	r2, .L61+12
 466 0036 1278     		ldrb	r2, [r2]	@ zero_extendqisi2
 467 0038 02F00A02 		and	r2, r2, #10
 468 003c 0A2A     		cmp	r2, #10
 469 003e 05D1     		bne	.L59
 448:.\Generated_Source\PSoC5/I2C_MASTER.c ****         {
 449:.\Generated_Source\PSoC5/I2C_MASTER.c ****             /* Address has been NACKed: reset FSM to IDLE */
 450:.\Generated_Source\PSoC5/I2C_MASTER.c ****             I2C_state = I2C_SM_IDLE;
 470              		.loc 1 450 0
 471 0040 1022     		movs	r2, #16
 472 0042 1A70     		strb	r2, [r3]
 473              	.LVL52:
 451:.\Generated_Source\PSoC5/I2C_MASTER.c ****             errStatus = I2C_MSTR_ERR_LB_NAK;
 474              		.loc 1 451 0
 475 0044 0320     		movs	r0, #3
 476              	.LVL53:
 477 0046 7047     		bx	lr
 478              	.LVL54:
 479              	.L58:
 409:.\Generated_Source\PSoC5/I2C_MASTER.c ****     errStatus = I2C_MSTR_NOT_READY;
 480              		.loc 1 409 0
 481 0048 0220     		movs	r0, #2
 482              	.LVL55:
 483 004a 7047     		bx	lr
 484              	.LVL56:
 485              	.L59:
 452:.\Generated_Source\PSoC5/I2C_MASTER.c ****         }
 453:.\Generated_Source\PSoC5/I2C_MASTER.c ****         else
 454:.\Generated_Source\PSoC5/I2C_MASTER.c ****         {
 455:.\Generated_Source\PSoC5/I2C_MASTER.c ****             /* ReStart was sent without errors */
 456:.\Generated_Source\PSoC5/I2C_MASTER.c ****             errStatus = I2C_MSTR_NO_ERROR;
 486              		.loc 1 456 0
 487 004c 0020     		movs	r0, #0
 488              	.LVL57:
 457:.\Generated_Source\PSoC5/I2C_MASTER.c ****         }
 458:.\Generated_Source\PSoC5/I2C_MASTER.c ****     }
 459:.\Generated_Source\PSoC5/I2C_MASTER.c **** 
 460:.\Generated_Source\PSoC5/I2C_MASTER.c ****     return(errStatus);
ARM GAS  C:\Users\Eih3\AppData\Local\Temp\ccGBH7mu.s 			page 18


 461:.\Generated_Source\PSoC5/I2C_MASTER.c **** }
 489              		.loc 1 461 0
 490 004e 7047     		bx	lr
 491              	.L62:
 492              		.align	2
 493              	.L61:
 494 0050 D9490040 		.word	1073760729
 495 0054 00000000 		.word	I2C_state
 496 0058 D8490040 		.word	1073760728
 497 005c D7490040 		.word	1073760727
 498              		.cfi_endproc
 499              	.LFE3:
 500              		.size	I2C_MasterSendRestart, .-I2C_MasterSendRestart
 501              		.section	.text.I2C_MasterSendStop,"ax",%progbits
 502              		.align	1
 503              		.global	I2C_MasterSendStop
 504              		.thumb
 505              		.thumb_func
 506              		.type	I2C_MasterSendStop, %function
 507              	I2C_MasterSendStop:
 508              	.LFB4:
 462:.\Generated_Source\PSoC5/I2C_MASTER.c **** 
 463:.\Generated_Source\PSoC5/I2C_MASTER.c **** 
 464:.\Generated_Source\PSoC5/I2C_MASTER.c **** /*******************************************************************************
 465:.\Generated_Source\PSoC5/I2C_MASTER.c **** * Function Name: I2C_MasterSendStop
 466:.\Generated_Source\PSoC5/I2C_MASTER.c **** ********************************************************************************
 467:.\Generated_Source\PSoC5/I2C_MASTER.c **** *
 468:.\Generated_Source\PSoC5/I2C_MASTER.c **** * Summary:
 469:.\Generated_Source\PSoC5/I2C_MASTER.c **** *  Generates I2C Stop condition on bus. Function do nothing if Start or Restart
 470:.\Generated_Source\PSoC5/I2C_MASTER.c **** *  condition was failed before call this function.
 471:.\Generated_Source\PSoC5/I2C_MASTER.c **** *
 472:.\Generated_Source\PSoC5/I2C_MASTER.c **** * Parameters:
 473:.\Generated_Source\PSoC5/I2C_MASTER.c **** *  None.
 474:.\Generated_Source\PSoC5/I2C_MASTER.c **** *
 475:.\Generated_Source\PSoC5/I2C_MASTER.c **** * Return:
 476:.\Generated_Source\PSoC5/I2C_MASTER.c **** *  Status error - Zero means no errors.
 477:.\Generated_Source\PSoC5/I2C_MASTER.c **** *
 478:.\Generated_Source\PSoC5/I2C_MASTER.c **** * Side Effects:
 479:.\Generated_Source\PSoC5/I2C_MASTER.c **** *  Stop generation is required to complete the transaction.
 480:.\Generated_Source\PSoC5/I2C_MASTER.c **** *  This function does not wait until a Stop condition is generated.
 481:.\Generated_Source\PSoC5/I2C_MASTER.c **** *
 482:.\Generated_Source\PSoC5/I2C_MASTER.c **** * Global variables:
 483:.\Generated_Source\PSoC5/I2C_MASTER.c **** *  I2C_state - The global variable used to store a current state of
 484:.\Generated_Source\PSoC5/I2C_MASTER.c **** *                           the software FSM.
 485:.\Generated_Source\PSoC5/I2C_MASTER.c **** *
 486:.\Generated_Source\PSoC5/I2C_MASTER.c **** * Reentrant:
 487:.\Generated_Source\PSoC5/I2C_MASTER.c **** *  No.
 488:.\Generated_Source\PSoC5/I2C_MASTER.c **** *
 489:.\Generated_Source\PSoC5/I2C_MASTER.c **** *******************************************************************************/
 490:.\Generated_Source\PSoC5/I2C_MASTER.c **** uint8 I2C_MasterSendStop(void) 
 491:.\Generated_Source\PSoC5/I2C_MASTER.c **** {
 509              		.loc 1 491 0
 510              		.cfi_startproc
 511              		@ args = 0, pretend = 0, frame = 0
 512              		@ frame_needed = 0, uses_anonymous_args = 0
 513              		@ link register save eliminated.
 514              	.LVL58:
ARM GAS  C:\Users\Eih3\AppData\Local\Temp\ccGBH7mu.s 			page 19


 492:.\Generated_Source\PSoC5/I2C_MASTER.c ****     uint8 errStatus;
 493:.\Generated_Source\PSoC5/I2C_MASTER.c **** 
 494:.\Generated_Source\PSoC5/I2C_MASTER.c ****     errStatus = I2C_MSTR_NOT_READY;
 495:.\Generated_Source\PSoC5/I2C_MASTER.c **** 
 496:.\Generated_Source\PSoC5/I2C_MASTER.c ****     /* Check if master is active on bus */
 497:.\Generated_Source\PSoC5/I2C_MASTER.c ****     if(I2C_CHECK_MASTER_MODE(I2C_MCSR_REG))
 515              		.loc 1 497 0
 516 0000 094B     		ldr	r3, .L69
 517 0002 1A78     		ldrb	r2, [r3]	@ zero_extendqisi2
 518 0004 5107     		lsls	r1, r2, #29
 519 0006 0AD5     		bpl	.L66
 498:.\Generated_Source\PSoC5/I2C_MASTER.c ****     {
 499:.\Generated_Source\PSoC5/I2C_MASTER.c ****         I2C_GENERATE_STOP_MANUAL;
 520              		.loc 1 499 0
 521 0008 1022     		movs	r2, #16
 522 000a 1A70     		strb	r2, [r3]
 523 000c 0421     		movs	r1, #4
 524 000e 023B     		subs	r3, r3, #2
 525 0010 1970     		strb	r1, [r3]
 500:.\Generated_Source\PSoC5/I2C_MASTER.c ****         I2C_state = I2C_SM_IDLE;
 526              		.loc 1 500 0
 527 0012 0649     		ldr	r1, .L69+4
 528 0014 0A70     		strb	r2, [r1]
 529              	.L65:
 501:.\Generated_Source\PSoC5/I2C_MASTER.c **** 
 502:.\Generated_Source\PSoC5/I2C_MASTER.c ****         /* Wait until stop has been generated */
 503:.\Generated_Source\PSoC5/I2C_MASTER.c ****         while (I2C_WAIT_STOP_COMPLETE(I2C_CSR_REG))
 530              		.loc 1 503 0 discriminator 1
 531 0016 1A78     		ldrb	r2, [r3]	@ zero_extendqisi2
 532 0018 9206     		lsls	r2, r2, #26
 533 001a FCD5     		bpl	.L65
 534 001c 01E0     		b	.L68
 535              	.L66:
 494:.\Generated_Source\PSoC5/I2C_MASTER.c ****     errStatus = I2C_MSTR_NOT_READY;
 536              		.loc 1 494 0
 537 001e 0220     		movs	r0, #2
 538 0020 7047     		bx	lr
 539              	.L68:
 504:.\Generated_Source\PSoC5/I2C_MASTER.c ****         {
 505:.\Generated_Source\PSoC5/I2C_MASTER.c ****         }
 506:.\Generated_Source\PSoC5/I2C_MASTER.c **** 
 507:.\Generated_Source\PSoC5/I2C_MASTER.c ****         errStatus = I2C_MSTR_NO_ERROR;
 540              		.loc 1 507 0
 541 0022 0020     		movs	r0, #0
 542              	.LVL59:
 508:.\Generated_Source\PSoC5/I2C_MASTER.c **** 
 509:.\Generated_Source\PSoC5/I2C_MASTER.c ****     #if(I2C_MODE_MULTI_MASTER_ENABLED)
 510:.\Generated_Source\PSoC5/I2C_MASTER.c ****         if(I2C_CHECK_LOST_ARB(I2C_CSR_REG))
 511:.\Generated_Source\PSoC5/I2C_MASTER.c ****         {
 512:.\Generated_Source\PSoC5/I2C_MASTER.c ****             I2C_BUS_RELEASE;
 513:.\Generated_Source\PSoC5/I2C_MASTER.c **** 
 514:.\Generated_Source\PSoC5/I2C_MASTER.c ****             /* NACK was generated by instead Stop */
 515:.\Generated_Source\PSoC5/I2C_MASTER.c ****             errStatus = I2C_MSTR_ERR_ARB_LOST;
 516:.\Generated_Source\PSoC5/I2C_MASTER.c ****         }
 517:.\Generated_Source\PSoC5/I2C_MASTER.c ****     #endif /* (I2C_MODE_MULTI_MASTER_ENABLED) */
 518:.\Generated_Source\PSoC5/I2C_MASTER.c ****     }
 519:.\Generated_Source\PSoC5/I2C_MASTER.c **** 
ARM GAS  C:\Users\Eih3\AppData\Local\Temp\ccGBH7mu.s 			page 20


 520:.\Generated_Source\PSoC5/I2C_MASTER.c ****     return(errStatus);
 521:.\Generated_Source\PSoC5/I2C_MASTER.c **** }
 543              		.loc 1 521 0
 544 0024 7047     		bx	lr
 545              	.L70:
 546 0026 00BF     		.align	2
 547              	.L69:
 548 0028 D9490040 		.word	1073760729
 549 002c 00000000 		.word	I2C_state
 550              		.cfi_endproc
 551              	.LFE4:
 552              		.size	I2C_MasterSendStop, .-I2C_MasterSendStop
 553              		.section	.text.I2C_MasterWriteByte,"ax",%progbits
 554              		.align	1
 555              		.global	I2C_MasterWriteByte
 556              		.thumb
 557              		.thumb_func
 558              		.type	I2C_MasterWriteByte, %function
 559              	I2C_MasterWriteByte:
 560              	.LFB5:
 522:.\Generated_Source\PSoC5/I2C_MASTER.c **** 
 523:.\Generated_Source\PSoC5/I2C_MASTER.c **** 
 524:.\Generated_Source\PSoC5/I2C_MASTER.c **** /*******************************************************************************
 525:.\Generated_Source\PSoC5/I2C_MASTER.c **** * Function Name: I2C_MasterWriteByte
 526:.\Generated_Source\PSoC5/I2C_MASTER.c **** ********************************************************************************
 527:.\Generated_Source\PSoC5/I2C_MASTER.c **** *
 528:.\Generated_Source\PSoC5/I2C_MASTER.c **** * Summary:
 529:.\Generated_Source\PSoC5/I2C_MASTER.c **** *  Sends one byte to a slave. A valid Start or ReStart condition must be
 530:.\Generated_Source\PSoC5/I2C_MASTER.c **** *  generated before this call this function. Function do nothing if Start or
 531:.\Generated_Source\PSoC5/I2C_MASTER.c **** *  Restart condition was failed before call this function.
 532:.\Generated_Source\PSoC5/I2C_MASTER.c **** *
 533:.\Generated_Source\PSoC5/I2C_MASTER.c **** * Parameters:
 534:.\Generated_Source\PSoC5/I2C_MASTER.c **** *  data:  The data byte to send to the slave.
 535:.\Generated_Source\PSoC5/I2C_MASTER.c **** *
 536:.\Generated_Source\PSoC5/I2C_MASTER.c **** * Return:
 537:.\Generated_Source\PSoC5/I2C_MASTER.c **** *  Status error - Zero means no errors.
 538:.\Generated_Source\PSoC5/I2C_MASTER.c **** *
 539:.\Generated_Source\PSoC5/I2C_MASTER.c **** * Side Effects:
 540:.\Generated_Source\PSoC5/I2C_MASTER.c **** *  This function is entered without a "byte complete" bit set in the I2C_CSR
 541:.\Generated_Source\PSoC5/I2C_MASTER.c **** *  register. It does not exit until it is set.
 542:.\Generated_Source\PSoC5/I2C_MASTER.c **** *
 543:.\Generated_Source\PSoC5/I2C_MASTER.c **** * Global variables:
 544:.\Generated_Source\PSoC5/I2C_MASTER.c **** *  I2C_state - The global variable used to store a current state of
 545:.\Generated_Source\PSoC5/I2C_MASTER.c **** *                           the software FSM.
 546:.\Generated_Source\PSoC5/I2C_MASTER.c **** *
 547:.\Generated_Source\PSoC5/I2C_MASTER.c **** *******************************************************************************/
 548:.\Generated_Source\PSoC5/I2C_MASTER.c **** uint8 I2C_MasterWriteByte(uint8 theByte) 
 549:.\Generated_Source\PSoC5/I2C_MASTER.c **** {
 561              		.loc 1 549 0
 562              		.cfi_startproc
 563              		@ args = 0, pretend = 0, frame = 0
 564              		@ frame_needed = 0, uses_anonymous_args = 0
 565              		@ link register save eliminated.
 566              	.LVL60:
 550:.\Generated_Source\PSoC5/I2C_MASTER.c ****     uint8 errStatus;
 551:.\Generated_Source\PSoC5/I2C_MASTER.c **** 
 552:.\Generated_Source\PSoC5/I2C_MASTER.c ****     errStatus = I2C_MSTR_NOT_READY;
ARM GAS  C:\Users\Eih3\AppData\Local\Temp\ccGBH7mu.s 			page 21


 553:.\Generated_Source\PSoC5/I2C_MASTER.c **** 
 554:.\Generated_Source\PSoC5/I2C_MASTER.c ****     /* Check if START condition was generated */
 555:.\Generated_Source\PSoC5/I2C_MASTER.c ****     if(I2C_CHECK_MASTER_MODE(I2C_MCSR_REG))
 567              		.loc 1 555 0
 568 0000 0E4B     		ldr	r3, .L77
 569 0002 1B78     		ldrb	r3, [r3]	@ zero_extendqisi2
 570 0004 5B07     		lsls	r3, r3, #29
 571 0006 16D5     		bpl	.L76
 556:.\Generated_Source\PSoC5/I2C_MASTER.c ****     {
 557:.\Generated_Source\PSoC5/I2C_MASTER.c ****         I2C_DATA_REG = theByte;   /* Write DATA register */
 572              		.loc 1 557 0
 573 0008 0D4B     		ldr	r3, .L77+4
 558:.\Generated_Source\PSoC5/I2C_MASTER.c ****         I2C_TRANSMIT_DATA_MANUAL; /* Set transmit mode   */
 574              		.loc 1 558 0
 575 000a 0E4A     		ldr	r2, .L77+8
 557:.\Generated_Source\PSoC5/I2C_MASTER.c ****         I2C_DATA_REG = theByte;   /* Write DATA register */
 576              		.loc 1 557 0
 577 000c 1870     		strb	r0, [r3]
 578              		.loc 1 558 0
 579 000e 0423     		movs	r3, #4
 580 0010 1370     		strb	r3, [r2]
 559:.\Generated_Source\PSoC5/I2C_MASTER.c ****         I2C_state = I2C_SM_MSTR_WR_DATA;
 581              		.loc 1 559 0
 582 0012 0D4B     		ldr	r3, .L77+12
 583 0014 4621     		movs	r1, #70
 584 0016 1970     		strb	r1, [r3]
 585              	.L74:
 560:.\Generated_Source\PSoC5/I2C_MASTER.c **** 
 561:.\Generated_Source\PSoC5/I2C_MASTER.c ****         /* Wait until data byte has been transmitted */
 562:.\Generated_Source\PSoC5/I2C_MASTER.c ****         while(I2C_WAIT_BYTE_COMPLETE(I2C_CSR_REG))
 586              		.loc 1 562 0 discriminator 1
 587 0018 1178     		ldrb	r1, [r2]	@ zero_extendqisi2
 588 001a C907     		lsls	r1, r1, #31
 589 001c FCD5     		bpl	.L74
 563:.\Generated_Source\PSoC5/I2C_MASTER.c ****         {
 564:.\Generated_Source\PSoC5/I2C_MASTER.c ****         }
 565:.\Generated_Source\PSoC5/I2C_MASTER.c **** 
 566:.\Generated_Source\PSoC5/I2C_MASTER.c ****     #if(I2C_MODE_MULTI_MASTER_ENABLED)
 567:.\Generated_Source\PSoC5/I2C_MASTER.c ****         if(I2C_CHECK_LOST_ARB(I2C_CSR_REG))
 568:.\Generated_Source\PSoC5/I2C_MASTER.c ****         {
 569:.\Generated_Source\PSoC5/I2C_MASTER.c ****             I2C_BUS_RELEASE;
 570:.\Generated_Source\PSoC5/I2C_MASTER.c **** 
 571:.\Generated_Source\PSoC5/I2C_MASTER.c ****             /* Master lost arbitrage: reset FSM to IDLE */
 572:.\Generated_Source\PSoC5/I2C_MASTER.c ****             I2C_state = I2C_SM_IDLE;
 573:.\Generated_Source\PSoC5/I2C_MASTER.c ****             errStatus = I2C_MSTR_ERR_ARB_LOST;
 574:.\Generated_Source\PSoC5/I2C_MASTER.c ****         }
 575:.\Generated_Source\PSoC5/I2C_MASTER.c ****         /* Check LRB bit */
 576:.\Generated_Source\PSoC5/I2C_MASTER.c ****         else
 577:.\Generated_Source\PSoC5/I2C_MASTER.c ****     #endif /* (I2C_MODE_MULTI_MASTER_ENABLED) */
 578:.\Generated_Source\PSoC5/I2C_MASTER.c **** 
 579:.\Generated_Source\PSoC5/I2C_MASTER.c ****         if(I2C_CHECK_DATA_ACK(I2C_CSR_REG))
 590              		.loc 1 579 0
 591 001e 094A     		ldr	r2, .L77+8
 592 0020 1178     		ldrb	r1, [r2]	@ zero_extendqisi2
 593 0022 6022     		movs	r2, #96
 594 0024 01F00201 		and	r1, r1, #2
 595 0028 01F0FF00 		and	r0, r1, #255
ARM GAS  C:\Users\Eih3\AppData\Local\Temp\ccGBH7mu.s 			page 22


 596              	.LVL61:
 580:.\Generated_Source\PSoC5/I2C_MASTER.c ****         {
 581:.\Generated_Source\PSoC5/I2C_MASTER.c ****             I2C_state = I2C_SM_MSTR_HALT;
 597              		.loc 1 581 0
 598 002c 1A70     		strb	r2, [r3]
 579:.\Generated_Source\PSoC5/I2C_MASTER.c ****         if(I2C_CHECK_DATA_ACK(I2C_CSR_REG))
 599              		.loc 1 579 0
 600 002e 01B9     		cbnz	r1, .L75
 601              	.LVL62:
 602 0030 7047     		bx	lr
 603              	.LVL63:
 604              	.L75:
 582:.\Generated_Source\PSoC5/I2C_MASTER.c ****             errStatus = I2C_MSTR_NO_ERROR;
 583:.\Generated_Source\PSoC5/I2C_MASTER.c ****         }
 584:.\Generated_Source\PSoC5/I2C_MASTER.c ****         else
 585:.\Generated_Source\PSoC5/I2C_MASTER.c ****         {
 586:.\Generated_Source\PSoC5/I2C_MASTER.c ****             I2C_state = I2C_SM_MSTR_HALT;
 587:.\Generated_Source\PSoC5/I2C_MASTER.c ****             errStatus = I2C_MSTR_ERR_LB_NAK;
 605              		.loc 1 587 0
 606 0032 0320     		movs	r0, #3
 607 0034 7047     		bx	lr
 608              	.LVL64:
 609              	.L76:
 552:.\Generated_Source\PSoC5/I2C_MASTER.c ****     errStatus = I2C_MSTR_NOT_READY;
 610              		.loc 1 552 0
 611 0036 0220     		movs	r0, #2
 612              	.LVL65:
 588:.\Generated_Source\PSoC5/I2C_MASTER.c ****         }
 589:.\Generated_Source\PSoC5/I2C_MASTER.c ****     }
 590:.\Generated_Source\PSoC5/I2C_MASTER.c **** 
 591:.\Generated_Source\PSoC5/I2C_MASTER.c ****     return(errStatus);
 592:.\Generated_Source\PSoC5/I2C_MASTER.c **** }
 613              		.loc 1 592 0
 614 0038 7047     		bx	lr
 615              	.L78:
 616 003a 00BF     		.align	2
 617              	.L77:
 618 003c D9490040 		.word	1073760729
 619 0040 D8490040 		.word	1073760728
 620 0044 D7490040 		.word	1073760727
 621 0048 00000000 		.word	I2C_state
 622              		.cfi_endproc
 623              	.LFE5:
 624              		.size	I2C_MasterWriteByte, .-I2C_MasterWriteByte
 625              		.section	.text.I2C_MasterReadByte,"ax",%progbits
 626              		.align	1
 627              		.global	I2C_MasterReadByte
 628              		.thumb
 629              		.thumb_func
 630              		.type	I2C_MasterReadByte, %function
 631              	I2C_MasterReadByte:
 632              	.LFB6:
 593:.\Generated_Source\PSoC5/I2C_MASTER.c **** 
 594:.\Generated_Source\PSoC5/I2C_MASTER.c **** 
 595:.\Generated_Source\PSoC5/I2C_MASTER.c **** /*******************************************************************************
 596:.\Generated_Source\PSoC5/I2C_MASTER.c **** * Function Name: I2C_MasterReadByte
 597:.\Generated_Source\PSoC5/I2C_MASTER.c **** ********************************************************************************
ARM GAS  C:\Users\Eih3\AppData\Local\Temp\ccGBH7mu.s 			page 23


 598:.\Generated_Source\PSoC5/I2C_MASTER.c **** *
 599:.\Generated_Source\PSoC5/I2C_MASTER.c **** * Summary:
 600:.\Generated_Source\PSoC5/I2C_MASTER.c **** *  Reads one byte from a slave and ACK or NACK the transfer. A valid Start or
 601:.\Generated_Source\PSoC5/I2C_MASTER.c **** *  ReStart condition must be generated before this call this function. Function
 602:.\Generated_Source\PSoC5/I2C_MASTER.c **** *  do nothing if Start or Restart condition was failed before call this
 603:.\Generated_Source\PSoC5/I2C_MASTER.c **** *  function.
 604:.\Generated_Source\PSoC5/I2C_MASTER.c **** *
 605:.\Generated_Source\PSoC5/I2C_MASTER.c **** * Parameters:
 606:.\Generated_Source\PSoC5/I2C_MASTER.c **** *  acknNack:  Zero, response with NACK, if non-zero response with ACK.
 607:.\Generated_Source\PSoC5/I2C_MASTER.c **** *
 608:.\Generated_Source\PSoC5/I2C_MASTER.c **** * Return:
 609:.\Generated_Source\PSoC5/I2C_MASTER.c **** *  Byte read from slave.
 610:.\Generated_Source\PSoC5/I2C_MASTER.c **** *
 611:.\Generated_Source\PSoC5/I2C_MASTER.c **** * Side Effects:
 612:.\Generated_Source\PSoC5/I2C_MASTER.c **** *  This function is entered without a "byte complete" bit set in the I2C_CSR
 613:.\Generated_Source\PSoC5/I2C_MASTER.c **** *  register. It does not exit until it is set.
 614:.\Generated_Source\PSoC5/I2C_MASTER.c **** *
 615:.\Generated_Source\PSoC5/I2C_MASTER.c **** * Global variables:
 616:.\Generated_Source\PSoC5/I2C_MASTER.c **** *  I2C_state - The global variable used to store a current
 617:.\Generated_Source\PSoC5/I2C_MASTER.c **** *                           state of the software FSM.
 618:.\Generated_Source\PSoC5/I2C_MASTER.c **** *
 619:.\Generated_Source\PSoC5/I2C_MASTER.c **** * Reentrant:
 620:.\Generated_Source\PSoC5/I2C_MASTER.c **** *  No.
 621:.\Generated_Source\PSoC5/I2C_MASTER.c **** *
 622:.\Generated_Source\PSoC5/I2C_MASTER.c **** *******************************************************************************/
 623:.\Generated_Source\PSoC5/I2C_MASTER.c **** uint8 I2C_MasterReadByte(uint8 acknNak) 
 624:.\Generated_Source\PSoC5/I2C_MASTER.c **** {
 633              		.loc 1 624 0
 634              		.cfi_startproc
 635              		@ args = 0, pretend = 0, frame = 0
 636              		@ frame_needed = 0, uses_anonymous_args = 0
 637              		@ link register save eliminated.
 638              	.LVL66:
 625:.\Generated_Source\PSoC5/I2C_MASTER.c ****     uint8 theByte;
 626:.\Generated_Source\PSoC5/I2C_MASTER.c **** 
 627:.\Generated_Source\PSoC5/I2C_MASTER.c ****     theByte = 0u;
 628:.\Generated_Source\PSoC5/I2C_MASTER.c **** 
 629:.\Generated_Source\PSoC5/I2C_MASTER.c ****     /* Check if START condition was generated */
 630:.\Generated_Source\PSoC5/I2C_MASTER.c ****     if(I2C_CHECK_MASTER_MODE(I2C_MCSR_REG))
 639              		.loc 1 630 0
 640 0000 0F4B     		ldr	r3, .L87
 624:.\Generated_Source\PSoC5/I2C_MASTER.c **** {
 641              		.loc 1 624 0
 642 0002 0146     		mov	r1, r0
 643              		.loc 1 630 0
 644 0004 1B78     		ldrb	r3, [r3]	@ zero_extendqisi2
 645 0006 03F00403 		and	r3, r3, #4
 646 000a 03F0FF02 		and	r2, r3, #255
 647 000e ABB1     		cbz	r3, .L85
 631:.\Generated_Source\PSoC5/I2C_MASTER.c ****     {
 632:.\Generated_Source\PSoC5/I2C_MASTER.c ****         /* When address phase needs to release bus and receive byte,
 633:.\Generated_Source\PSoC5/I2C_MASTER.c ****         * then decide ACK or NACK
 634:.\Generated_Source\PSoC5/I2C_MASTER.c ****         */
 635:.\Generated_Source\PSoC5/I2C_MASTER.c ****         if(I2C_SM_MSTR_RD_ADDR == I2C_state)
 648              		.loc 1 635 0
 649 0010 0C4B     		ldr	r3, .L87+4
 650 0012 1A78     		ldrb	r2, [r3]	@ zero_extendqisi2
ARM GAS  C:\Users\Eih3\AppData\Local\Temp\ccGBH7mu.s 			page 24


 651 0014 492A     		cmp	r2, #73
 652 0016 0C4A     		ldr	r2, .L87+8
 653 0018 03D1     		bne	.L83
 636:.\Generated_Source\PSoC5/I2C_MASTER.c ****         {
 637:.\Generated_Source\PSoC5/I2C_MASTER.c ****             I2C_READY_TO_READ_MANUAL;
 654              		.loc 1 637 0
 655 001a 0020     		movs	r0, #0
 656              	.LVL67:
 657 001c 1070     		strb	r0, [r2]
 638:.\Generated_Source\PSoC5/I2C_MASTER.c ****             I2C_state = I2C_SM_MSTR_RD_DATA;
 658              		.loc 1 638 0
 659 001e 4A20     		movs	r0, #74
 660 0020 1870     		strb	r0, [r3]
 661              	.L83:
 639:.\Generated_Source\PSoC5/I2C_MASTER.c ****         }
 640:.\Generated_Source\PSoC5/I2C_MASTER.c **** 
 641:.\Generated_Source\PSoC5/I2C_MASTER.c ****         /* Wait until data byte has been received */
 642:.\Generated_Source\PSoC5/I2C_MASTER.c ****         while(I2C_WAIT_BYTE_COMPLETE(I2C_CSR_REG))
 662              		.loc 1 642 0 discriminator 1
 663 0022 1078     		ldrb	r0, [r2]	@ zero_extendqisi2
 664 0024 C007     		lsls	r0, r0, #31
 665 0026 FCD5     		bpl	.L83
 643:.\Generated_Source\PSoC5/I2C_MASTER.c ****         {
 644:.\Generated_Source\PSoC5/I2C_MASTER.c ****         }
 645:.\Generated_Source\PSoC5/I2C_MASTER.c **** 
 646:.\Generated_Source\PSoC5/I2C_MASTER.c ****         theByte = I2C_DATA_REG;
 666              		.loc 1 646 0
 667 0028 084A     		ldr	r2, .L87+12
 668 002a 1078     		ldrb	r0, [r2]	@ zero_extendqisi2
 669 002c C0B2     		uxtb	r0, r0
 670              	.LVL68:
 647:.\Generated_Source\PSoC5/I2C_MASTER.c **** 
 648:.\Generated_Source\PSoC5/I2C_MASTER.c ****         /* Command ACK to receive next byte and continue transfer.
 649:.\Generated_Source\PSoC5/I2C_MASTER.c ****         *  Do nothing for NACK. The NACK will be generated by
 650:.\Generated_Source\PSoC5/I2C_MASTER.c ****         *  Stop or ReStart routine.
 651:.\Generated_Source\PSoC5/I2C_MASTER.c ****         */
 652:.\Generated_Source\PSoC5/I2C_MASTER.c ****         if(acknNak != 0u) /* Generate ACK */
 671              		.loc 1 652 0
 672 002e 11B1     		cbz	r1, .L84
 653:.\Generated_Source\PSoC5/I2C_MASTER.c ****         {
 654:.\Generated_Source\PSoC5/I2C_MASTER.c ****             I2C_ACK_AND_RECEIVE_MANUAL;
 673              		.loc 1 654 0
 674 0030 1022     		movs	r2, #16
 675 0032 054B     		ldr	r3, .L87+8
 676 0034 00E0     		b	.L86
 677              	.L84:
 655:.\Generated_Source\PSoC5/I2C_MASTER.c ****         }
 656:.\Generated_Source\PSoC5/I2C_MASTER.c ****         else              /* Do nothing for the follwong NACK */
 657:.\Generated_Source\PSoC5/I2C_MASTER.c ****         {
 658:.\Generated_Source\PSoC5/I2C_MASTER.c ****             I2C_state = I2C_SM_MSTR_HALT;
 678              		.loc 1 658 0
 679 0036 6022     		movs	r2, #96
 680              	.L86:
 681 0038 1A70     		strb	r2, [r3]
 682 003a 7047     		bx	lr
 683              	.LVL69:
 684              	.L85:
ARM GAS  C:\Users\Eih3\AppData\Local\Temp\ccGBH7mu.s 			page 25


 627:.\Generated_Source\PSoC5/I2C_MASTER.c ****     theByte = 0u;
 685              		.loc 1 627 0
 686 003c 1046     		mov	r0, r2
 687              	.LVL70:
 659:.\Generated_Source\PSoC5/I2C_MASTER.c ****         }
 660:.\Generated_Source\PSoC5/I2C_MASTER.c ****     }
 661:.\Generated_Source\PSoC5/I2C_MASTER.c **** 
 662:.\Generated_Source\PSoC5/I2C_MASTER.c ****     return(theByte);
 663:.\Generated_Source\PSoC5/I2C_MASTER.c **** }
 688              		.loc 1 663 0
 689 003e 7047     		bx	lr
 690              	.L88:
 691              		.align	2
 692              	.L87:
 693 0040 D9490040 		.word	1073760729
 694 0044 00000000 		.word	I2C_state
 695 0048 D7490040 		.word	1073760727
 696 004c D8490040 		.word	1073760728
 697              		.cfi_endproc
 698              	.LFE6:
 699              		.size	I2C_MasterReadByte, .-I2C_MasterReadByte
 700              		.section	.text.I2C_MasterStatus,"ax",%progbits
 701              		.align	1
 702              		.global	I2C_MasterStatus
 703              		.thumb
 704              		.thumb_func
 705              		.type	I2C_MasterStatus, %function
 706              	I2C_MasterStatus:
 707              	.LFB7:
 664:.\Generated_Source\PSoC5/I2C_MASTER.c **** 
 665:.\Generated_Source\PSoC5/I2C_MASTER.c **** 
 666:.\Generated_Source\PSoC5/I2C_MASTER.c **** /*******************************************************************************
 667:.\Generated_Source\PSoC5/I2C_MASTER.c **** * Function Name: I2C_MasterStatus
 668:.\Generated_Source\PSoC5/I2C_MASTER.c **** ********************************************************************************
 669:.\Generated_Source\PSoC5/I2C_MASTER.c **** *
 670:.\Generated_Source\PSoC5/I2C_MASTER.c **** * Summary:
 671:.\Generated_Source\PSoC5/I2C_MASTER.c **** *  Returns the master's communication status.
 672:.\Generated_Source\PSoC5/I2C_MASTER.c **** *
 673:.\Generated_Source\PSoC5/I2C_MASTER.c **** * Parameters:
 674:.\Generated_Source\PSoC5/I2C_MASTER.c **** *  None.
 675:.\Generated_Source\PSoC5/I2C_MASTER.c **** *
 676:.\Generated_Source\PSoC5/I2C_MASTER.c **** * Return:
 677:.\Generated_Source\PSoC5/I2C_MASTER.c **** *  Current status of I2C master.
 678:.\Generated_Source\PSoC5/I2C_MASTER.c **** *
 679:.\Generated_Source\PSoC5/I2C_MASTER.c **** * Global variables:
 680:.\Generated_Source\PSoC5/I2C_MASTER.c **** *  I2C_mstrStatus - The global variable used to store a current
 681:.\Generated_Source\PSoC5/I2C_MASTER.c **** *                                status of the I2C Master.
 682:.\Generated_Source\PSoC5/I2C_MASTER.c **** *
 683:.\Generated_Source\PSoC5/I2C_MASTER.c **** *******************************************************************************/
 684:.\Generated_Source\PSoC5/I2C_MASTER.c **** uint8 I2C_MasterStatus(void) 
 685:.\Generated_Source\PSoC5/I2C_MASTER.c **** {
 708              		.loc 1 685 0
 709              		.cfi_startproc
 710              		@ args = 0, pretend = 0, frame = 0
 711              		@ frame_needed = 0, uses_anonymous_args = 0
 712              		@ link register save eliminated.
 686:.\Generated_Source\PSoC5/I2C_MASTER.c ****     uint8 status;
ARM GAS  C:\Users\Eih3\AppData\Local\Temp\ccGBH7mu.s 			page 26


 687:.\Generated_Source\PSoC5/I2C_MASTER.c **** 
 688:.\Generated_Source\PSoC5/I2C_MASTER.c ****     I2C_DisableInt(); /* Lock from interrupt */
 713              		.loc 1 688 0
 714 0000 074A     		ldr	r2, .L94
 715 0002 4FF40043 		mov	r3, #32768
 716 0006 1360     		str	r3, [r2]
 689:.\Generated_Source\PSoC5/I2C_MASTER.c **** 
 690:.\Generated_Source\PSoC5/I2C_MASTER.c ****     /* Read master status */
 691:.\Generated_Source\PSoC5/I2C_MASTER.c ****     status = I2C_mstrStatus;
 717              		.loc 1 691 0
 718 0008 064A     		ldr	r2, .L94+4
 719 000a 1078     		ldrb	r0, [r2]	@ zero_extendqisi2
 692:.\Generated_Source\PSoC5/I2C_MASTER.c **** 
 693:.\Generated_Source\PSoC5/I2C_MASTER.c ****     if (I2C_CHECK_SM_MASTER)
 720              		.loc 1 693 0
 721 000c 064A     		ldr	r2, .L94+8
 691:.\Generated_Source\PSoC5/I2C_MASTER.c ****     status = I2C_mstrStatus;
 722              		.loc 1 691 0
 723 000e C0B2     		uxtb	r0, r0
 724              	.LVL71:
 725              		.loc 1 693 0
 726 0010 1278     		ldrb	r2, [r2]	@ zero_extendqisi2
 727 0012 5206     		lsls	r2, r2, #25
 694:.\Generated_Source\PSoC5/I2C_MASTER.c ****     {
 695:.\Generated_Source\PSoC5/I2C_MASTER.c ****         /* Set transfer in progress flag in status */
 696:.\Generated_Source\PSoC5/I2C_MASTER.c ****         status |= I2C_MSTAT_XFER_INP;
 697:.\Generated_Source\PSoC5/I2C_MASTER.c ****     }
 698:.\Generated_Source\PSoC5/I2C_MASTER.c **** 
 699:.\Generated_Source\PSoC5/I2C_MASTER.c ****     I2C_EnableInt(); /* Release lock */
 728              		.loc 1 699 0
 729 0014 054A     		ldr	r2, .L94+12
 696:.\Generated_Source\PSoC5/I2C_MASTER.c ****         status |= I2C_MSTAT_XFER_INP;
 730              		.loc 1 696 0
 731 0016 48BF     		it	mi
 732 0018 40F00400 		orrmi	r0, r0, #4
 733              	.LVL72:
 734              		.loc 1 699 0
 735 001c 1360     		str	r3, [r2]
 700:.\Generated_Source\PSoC5/I2C_MASTER.c **** 
 701:.\Generated_Source\PSoC5/I2C_MASTER.c ****     return (status);
 702:.\Generated_Source\PSoC5/I2C_MASTER.c **** }
 736              		.loc 1 702 0
 737 001e 7047     		bx	lr
 738              	.L95:
 739              		.align	2
 740              	.L94:
 741 0020 80E100E0 		.word	-536813184
 742 0024 00000000 		.word	I2C_mstrStatus
 743 0028 00000000 		.word	I2C_state
 744 002c 00E100E0 		.word	-536813312
 745              		.cfi_endproc
 746              	.LFE7:
 747              		.size	I2C_MasterStatus, .-I2C_MasterStatus
 748              		.section	.text.I2C_MasterClearStatus,"ax",%progbits
 749              		.align	1
 750              		.global	I2C_MasterClearStatus
 751              		.thumb
ARM GAS  C:\Users\Eih3\AppData\Local\Temp\ccGBH7mu.s 			page 27


 752              		.thumb_func
 753              		.type	I2C_MasterClearStatus, %function
 754              	I2C_MasterClearStatus:
 755              	.LFB8:
 703:.\Generated_Source\PSoC5/I2C_MASTER.c **** 
 704:.\Generated_Source\PSoC5/I2C_MASTER.c **** 
 705:.\Generated_Source\PSoC5/I2C_MASTER.c **** /*******************************************************************************
 706:.\Generated_Source\PSoC5/I2C_MASTER.c **** * Function Name: I2C_MasterClearStatus
 707:.\Generated_Source\PSoC5/I2C_MASTER.c **** ********************************************************************************
 708:.\Generated_Source\PSoC5/I2C_MASTER.c **** *
 709:.\Generated_Source\PSoC5/I2C_MASTER.c **** * Summary:
 710:.\Generated_Source\PSoC5/I2C_MASTER.c **** *  Clears all status flags and returns the master status.
 711:.\Generated_Source\PSoC5/I2C_MASTER.c **** *
 712:.\Generated_Source\PSoC5/I2C_MASTER.c **** * Parameters:
 713:.\Generated_Source\PSoC5/I2C_MASTER.c **** *  None.
 714:.\Generated_Source\PSoC5/I2C_MASTER.c **** *
 715:.\Generated_Source\PSoC5/I2C_MASTER.c **** * Return:
 716:.\Generated_Source\PSoC5/I2C_MASTER.c **** *  Current status of I2C master.
 717:.\Generated_Source\PSoC5/I2C_MASTER.c **** *
 718:.\Generated_Source\PSoC5/I2C_MASTER.c **** * Global variables:
 719:.\Generated_Source\PSoC5/I2C_MASTER.c **** *  I2C_mstrStatus - The global variable used to store a current
 720:.\Generated_Source\PSoC5/I2C_MASTER.c **** *                                status of the I2C Master.
 721:.\Generated_Source\PSoC5/I2C_MASTER.c **** *
 722:.\Generated_Source\PSoC5/I2C_MASTER.c **** * Reentrant:
 723:.\Generated_Source\PSoC5/I2C_MASTER.c **** *  No.
 724:.\Generated_Source\PSoC5/I2C_MASTER.c **** *
 725:.\Generated_Source\PSoC5/I2C_MASTER.c **** *******************************************************************************/
 726:.\Generated_Source\PSoC5/I2C_MASTER.c **** uint8 I2C_MasterClearStatus(void) 
 727:.\Generated_Source\PSoC5/I2C_MASTER.c **** {
 756              		.loc 1 727 0
 757              		.cfi_startproc
 758              		@ args = 0, pretend = 0, frame = 0
 759              		@ frame_needed = 0, uses_anonymous_args = 0
 760              		@ link register save eliminated.
 728:.\Generated_Source\PSoC5/I2C_MASTER.c ****     uint8 status;
 729:.\Generated_Source\PSoC5/I2C_MASTER.c **** 
 730:.\Generated_Source\PSoC5/I2C_MASTER.c ****     I2C_DisableInt(); /* Lock from interrupt */
 761              		.loc 1 730 0
 762 0000 054A     		ldr	r2, .L97
 763 0002 4FF40043 		mov	r3, #32768
 764 0006 1360     		str	r3, [r2]
 731:.\Generated_Source\PSoC5/I2C_MASTER.c **** 
 732:.\Generated_Source\PSoC5/I2C_MASTER.c ****     /* Read and clear master status */
 733:.\Generated_Source\PSoC5/I2C_MASTER.c ****     status = I2C_mstrStatus;
 765              		.loc 1 733 0
 766 0008 044A     		ldr	r2, .L97+4
 734:.\Generated_Source\PSoC5/I2C_MASTER.c ****     I2C_mstrStatus = I2C_MSTAT_CLEAR;
 767              		.loc 1 734 0
 768 000a 0021     		movs	r1, #0
 733:.\Generated_Source\PSoC5/I2C_MASTER.c ****     status = I2C_mstrStatus;
 769              		.loc 1 733 0
 770 000c 1078     		ldrb	r0, [r2]	@ zero_extendqisi2
 771              	.LVL73:
 772              		.loc 1 734 0
 773 000e 1170     		strb	r1, [r2]
 735:.\Generated_Source\PSoC5/I2C_MASTER.c **** 
 736:.\Generated_Source\PSoC5/I2C_MASTER.c ****     I2C_EnableInt(); /* Release lock */
ARM GAS  C:\Users\Eih3\AppData\Local\Temp\ccGBH7mu.s 			page 28


 774              		.loc 1 736 0
 775 0010 034A     		ldr	r2, .L97+8
 776 0012 1360     		str	r3, [r2]
 737:.\Generated_Source\PSoC5/I2C_MASTER.c **** 
 738:.\Generated_Source\PSoC5/I2C_MASTER.c ****     return (status);
 739:.\Generated_Source\PSoC5/I2C_MASTER.c **** }
 777              		.loc 1 739 0
 778 0014 7047     		bx	lr
 779              	.L98:
 780 0016 00BF     		.align	2
 781              	.L97:
 782 0018 80E100E0 		.word	-536813184
 783 001c 00000000 		.word	I2C_mstrStatus
 784 0020 00E100E0 		.word	-536813312
 785              		.cfi_endproc
 786              	.LFE8:
 787              		.size	I2C_MasterClearStatus, .-I2C_MasterClearStatus
 788              		.section	.text.I2C_MasterGetReadBufSize,"ax",%progbits
 789              		.align	1
 790              		.global	I2C_MasterGetReadBufSize
 791              		.thumb
 792              		.thumb_func
 793              		.type	I2C_MasterGetReadBufSize, %function
 794              	I2C_MasterGetReadBufSize:
 795              	.LFB9:
 740:.\Generated_Source\PSoC5/I2C_MASTER.c **** 
 741:.\Generated_Source\PSoC5/I2C_MASTER.c **** 
 742:.\Generated_Source\PSoC5/I2C_MASTER.c **** /*******************************************************************************
 743:.\Generated_Source\PSoC5/I2C_MASTER.c **** * Function Name: I2C_MasterGetReadBufSize
 744:.\Generated_Source\PSoC5/I2C_MASTER.c **** ********************************************************************************
 745:.\Generated_Source\PSoC5/I2C_MASTER.c **** *
 746:.\Generated_Source\PSoC5/I2C_MASTER.c **** * Summary:
 747:.\Generated_Source\PSoC5/I2C_MASTER.c **** *  Returns the amount of bytes that has been transferred with an
 748:.\Generated_Source\PSoC5/I2C_MASTER.c **** *  I2C_MasterReadBuf command.
 749:.\Generated_Source\PSoC5/I2C_MASTER.c **** *
 750:.\Generated_Source\PSoC5/I2C_MASTER.c **** * Parameters:
 751:.\Generated_Source\PSoC5/I2C_MASTER.c **** *  None.
 752:.\Generated_Source\PSoC5/I2C_MASTER.c **** *
 753:.\Generated_Source\PSoC5/I2C_MASTER.c **** * Return:
 754:.\Generated_Source\PSoC5/I2C_MASTER.c **** *  Byte count of transfer. If the transfer is not yet complete, it will return
 755:.\Generated_Source\PSoC5/I2C_MASTER.c **** *  the byte count transferred so far.
 756:.\Generated_Source\PSoC5/I2C_MASTER.c **** *
 757:.\Generated_Source\PSoC5/I2C_MASTER.c **** * Global variables:
 758:.\Generated_Source\PSoC5/I2C_MASTER.c **** *  I2C_mstrRdBufIndex - The global variable stores current index
 759:.\Generated_Source\PSoC5/I2C_MASTER.c **** *                                    within the master read buffer.
 760:.\Generated_Source\PSoC5/I2C_MASTER.c **** *
 761:.\Generated_Source\PSoC5/I2C_MASTER.c **** *******************************************************************************/
 762:.\Generated_Source\PSoC5/I2C_MASTER.c **** uint8 I2C_MasterGetReadBufSize(void) 
 763:.\Generated_Source\PSoC5/I2C_MASTER.c **** {
 796              		.loc 1 763 0
 797              		.cfi_startproc
 798              		@ args = 0, pretend = 0, frame = 0
 799              		@ frame_needed = 0, uses_anonymous_args = 0
 800              		@ link register save eliminated.
 764:.\Generated_Source\PSoC5/I2C_MASTER.c ****     return (I2C_mstrRdBufIndex);
 801              		.loc 1 764 0
 802 0000 014B     		ldr	r3, .L100
ARM GAS  C:\Users\Eih3\AppData\Local\Temp\ccGBH7mu.s 			page 29


 803 0002 1878     		ldrb	r0, [r3]	@ zero_extendqisi2
 765:.\Generated_Source\PSoC5/I2C_MASTER.c **** }
 804              		.loc 1 765 0
 805 0004 7047     		bx	lr
 806              	.L101:
 807 0006 00BF     		.align	2
 808              	.L100:
 809 0008 00000000 		.word	I2C_mstrRdBufIndex
 810              		.cfi_endproc
 811              	.LFE9:
 812              		.size	I2C_MasterGetReadBufSize, .-I2C_MasterGetReadBufSize
 813              		.section	.text.I2C_MasterGetWriteBufSize,"ax",%progbits
 814              		.align	1
 815              		.global	I2C_MasterGetWriteBufSize
 816              		.thumb
 817              		.thumb_func
 818              		.type	I2C_MasterGetWriteBufSize, %function
 819              	I2C_MasterGetWriteBufSize:
 820              	.LFB10:
 766:.\Generated_Source\PSoC5/I2C_MASTER.c **** 
 767:.\Generated_Source\PSoC5/I2C_MASTER.c **** 
 768:.\Generated_Source\PSoC5/I2C_MASTER.c **** /*******************************************************************************
 769:.\Generated_Source\PSoC5/I2C_MASTER.c **** * Function Name: I2C_MasterGetWriteBufSize
 770:.\Generated_Source\PSoC5/I2C_MASTER.c **** ********************************************************************************
 771:.\Generated_Source\PSoC5/I2C_MASTER.c **** *
 772:.\Generated_Source\PSoC5/I2C_MASTER.c **** * Summary:
 773:.\Generated_Source\PSoC5/I2C_MASTER.c **** *  Returns the amount of bytes that has been transferred with an
 774:.\Generated_Source\PSoC5/I2C_MASTER.c **** *  I2C_MasterWriteBuf command.
 775:.\Generated_Source\PSoC5/I2C_MASTER.c **** *
 776:.\Generated_Source\PSoC5/I2C_MASTER.c **** * Parameters:
 777:.\Generated_Source\PSoC5/I2C_MASTER.c **** *  None.
 778:.\Generated_Source\PSoC5/I2C_MASTER.c **** *
 779:.\Generated_Source\PSoC5/I2C_MASTER.c **** * Return:
 780:.\Generated_Source\PSoC5/I2C_MASTER.c **** *  Byte count of transfer. If the transfer is not yet complete, it will return
 781:.\Generated_Source\PSoC5/I2C_MASTER.c **** *  the byte count transferred so far.
 782:.\Generated_Source\PSoC5/I2C_MASTER.c **** *
 783:.\Generated_Source\PSoC5/I2C_MASTER.c **** * Global variables:
 784:.\Generated_Source\PSoC5/I2C_MASTER.c **** *  I2C_mstrWrBufIndex -  The global variable used to stores current
 785:.\Generated_Source\PSoC5/I2C_MASTER.c **** *                                     index within master write buffer.
 786:.\Generated_Source\PSoC5/I2C_MASTER.c **** *
 787:.\Generated_Source\PSoC5/I2C_MASTER.c **** *******************************************************************************/
 788:.\Generated_Source\PSoC5/I2C_MASTER.c **** uint8 I2C_MasterGetWriteBufSize(void) 
 789:.\Generated_Source\PSoC5/I2C_MASTER.c **** {
 821              		.loc 1 789 0
 822              		.cfi_startproc
 823              		@ args = 0, pretend = 0, frame = 0
 824              		@ frame_needed = 0, uses_anonymous_args = 0
 825              		@ link register save eliminated.
 790:.\Generated_Source\PSoC5/I2C_MASTER.c ****     return (I2C_mstrWrBufIndex);
 826              		.loc 1 790 0
 827 0000 014B     		ldr	r3, .L103
 828 0002 1878     		ldrb	r0, [r3]	@ zero_extendqisi2
 791:.\Generated_Source\PSoC5/I2C_MASTER.c **** }
 829              		.loc 1 791 0
 830 0004 7047     		bx	lr
 831              	.L104:
 832 0006 00BF     		.align	2
ARM GAS  C:\Users\Eih3\AppData\Local\Temp\ccGBH7mu.s 			page 30


 833              	.L103:
 834 0008 00000000 		.word	I2C_mstrWrBufIndex
 835              		.cfi_endproc
 836              	.LFE10:
 837              		.size	I2C_MasterGetWriteBufSize, .-I2C_MasterGetWriteBufSize
 838              		.section	.text.I2C_MasterClearReadBuf,"ax",%progbits
 839              		.align	1
 840              		.global	I2C_MasterClearReadBuf
 841              		.thumb
 842              		.thumb_func
 843              		.type	I2C_MasterClearReadBuf, %function
 844              	I2C_MasterClearReadBuf:
 845              	.LFB11:
 792:.\Generated_Source\PSoC5/I2C_MASTER.c **** 
 793:.\Generated_Source\PSoC5/I2C_MASTER.c **** 
 794:.\Generated_Source\PSoC5/I2C_MASTER.c **** /*******************************************************************************
 795:.\Generated_Source\PSoC5/I2C_MASTER.c **** * Function Name: I2C_MasterClearReadBuf
 796:.\Generated_Source\PSoC5/I2C_MASTER.c **** ********************************************************************************
 797:.\Generated_Source\PSoC5/I2C_MASTER.c **** *
 798:.\Generated_Source\PSoC5/I2C_MASTER.c **** * Summary:
 799:.\Generated_Source\PSoC5/I2C_MASTER.c **** *  Resets the read buffer pointer back to the first byte in the buffer.
 800:.\Generated_Source\PSoC5/I2C_MASTER.c **** *
 801:.\Generated_Source\PSoC5/I2C_MASTER.c **** * Parameters:
 802:.\Generated_Source\PSoC5/I2C_MASTER.c **** *  None.
 803:.\Generated_Source\PSoC5/I2C_MASTER.c **** *
 804:.\Generated_Source\PSoC5/I2C_MASTER.c **** * Return:
 805:.\Generated_Source\PSoC5/I2C_MASTER.c **** *  None.
 806:.\Generated_Source\PSoC5/I2C_MASTER.c **** *
 807:.\Generated_Source\PSoC5/I2C_MASTER.c **** * Global variables:
 808:.\Generated_Source\PSoC5/I2C_MASTER.c **** *  I2C_mstrRdBufIndex - The global variable used to stores current
 809:.\Generated_Source\PSoC5/I2C_MASTER.c **** *                                    index within master read buffer.
 810:.\Generated_Source\PSoC5/I2C_MASTER.c **** *  I2C_mstrStatus - The global variable used to store a current
 811:.\Generated_Source\PSoC5/I2C_MASTER.c **** *                                status of the I2C Master.
 812:.\Generated_Source\PSoC5/I2C_MASTER.c **** *
 813:.\Generated_Source\PSoC5/I2C_MASTER.c **** * Reentrant:
 814:.\Generated_Source\PSoC5/I2C_MASTER.c **** *  No.
 815:.\Generated_Source\PSoC5/I2C_MASTER.c **** *
 816:.\Generated_Source\PSoC5/I2C_MASTER.c **** *******************************************************************************/
 817:.\Generated_Source\PSoC5/I2C_MASTER.c **** void I2C_MasterClearReadBuf(void) 
 818:.\Generated_Source\PSoC5/I2C_MASTER.c **** {
 846              		.loc 1 818 0
 847              		.cfi_startproc
 848              		@ args = 0, pretend = 0, frame = 0
 849              		@ frame_needed = 0, uses_anonymous_args = 0
 850              		@ link register save eliminated.
 819:.\Generated_Source\PSoC5/I2C_MASTER.c ****     I2C_DisableInt(); /* Lock from interrupt */
 851              		.loc 1 819 0
 852 0000 074A     		ldr	r2, .L106
 853 0002 4FF40043 		mov	r3, #32768
 854 0006 1360     		str	r3, [r2]
 820:.\Generated_Source\PSoC5/I2C_MASTER.c **** 
 821:.\Generated_Source\PSoC5/I2C_MASTER.c ****     I2C_mstrRdBufIndex = 0u;
 855              		.loc 1 821 0
 856 0008 064A     		ldr	r2, .L106+4
 857 000a 0021     		movs	r1, #0
 858 000c 1170     		strb	r1, [r2]
 822:.\Generated_Source\PSoC5/I2C_MASTER.c ****     I2C_mstrStatus    &= (uint8) ~I2C_MSTAT_RD_CMPLT;
ARM GAS  C:\Users\Eih3\AppData\Local\Temp\ccGBH7mu.s 			page 31


 859              		.loc 1 822 0
 860 000e 064A     		ldr	r2, .L106+8
 861 0010 1178     		ldrb	r1, [r2]	@ zero_extendqisi2
 862 0012 01F0FE01 		and	r1, r1, #254
 863 0016 1170     		strb	r1, [r2]
 823:.\Generated_Source\PSoC5/I2C_MASTER.c **** 
 824:.\Generated_Source\PSoC5/I2C_MASTER.c ****     I2C_EnableInt(); /* Release lock */
 864              		.loc 1 824 0
 865 0018 044A     		ldr	r2, .L106+12
 866 001a 1360     		str	r3, [r2]
 867 001c 7047     		bx	lr
 868              	.L107:
 869 001e 00BF     		.align	2
 870              	.L106:
 871 0020 80E100E0 		.word	-536813184
 872 0024 00000000 		.word	I2C_mstrRdBufIndex
 873 0028 00000000 		.word	I2C_mstrStatus
 874 002c 00E100E0 		.word	-536813312
 875              		.cfi_endproc
 876              	.LFE11:
 877              		.size	I2C_MasterClearReadBuf, .-I2C_MasterClearReadBuf
 878              		.section	.text.I2C_MasterClearWriteBuf,"ax",%progbits
 879              		.align	1
 880              		.global	I2C_MasterClearWriteBuf
 881              		.thumb
 882              		.thumb_func
 883              		.type	I2C_MasterClearWriteBuf, %function
 884              	I2C_MasterClearWriteBuf:
 885              	.LFB12:
 825:.\Generated_Source\PSoC5/I2C_MASTER.c **** }
 826:.\Generated_Source\PSoC5/I2C_MASTER.c **** 
 827:.\Generated_Source\PSoC5/I2C_MASTER.c **** 
 828:.\Generated_Source\PSoC5/I2C_MASTER.c **** /*******************************************************************************
 829:.\Generated_Source\PSoC5/I2C_MASTER.c **** * Function Name: I2C_MasterClearWriteBuf
 830:.\Generated_Source\PSoC5/I2C_MASTER.c **** ********************************************************************************
 831:.\Generated_Source\PSoC5/I2C_MASTER.c **** *
 832:.\Generated_Source\PSoC5/I2C_MASTER.c **** * Summary:
 833:.\Generated_Source\PSoC5/I2C_MASTER.c **** *  Resets the write buffer pointer back to the first byte in the buffer.
 834:.\Generated_Source\PSoC5/I2C_MASTER.c **** *
 835:.\Generated_Source\PSoC5/I2C_MASTER.c **** * Parameters:
 836:.\Generated_Source\PSoC5/I2C_MASTER.c **** *  None.
 837:.\Generated_Source\PSoC5/I2C_MASTER.c **** *
 838:.\Generated_Source\PSoC5/I2C_MASTER.c **** * Return:
 839:.\Generated_Source\PSoC5/I2C_MASTER.c **** *  None.
 840:.\Generated_Source\PSoC5/I2C_MASTER.c **** *
 841:.\Generated_Source\PSoC5/I2C_MASTER.c **** * Global variables:
 842:.\Generated_Source\PSoC5/I2C_MASTER.c **** *  I2C_mstrRdBufIndex - The global variable used to stote current
 843:.\Generated_Source\PSoC5/I2C_MASTER.c **** *                                    index within master read buffer.
 844:.\Generated_Source\PSoC5/I2C_MASTER.c **** *  I2C_mstrStatus - The global variable used to store a current
 845:.\Generated_Source\PSoC5/I2C_MASTER.c **** *                                status of the I2C Master.
 846:.\Generated_Source\PSoC5/I2C_MASTER.c **** *
 847:.\Generated_Source\PSoC5/I2C_MASTER.c **** * Reentrant:
 848:.\Generated_Source\PSoC5/I2C_MASTER.c **** *  No.
 849:.\Generated_Source\PSoC5/I2C_MASTER.c **** *
 850:.\Generated_Source\PSoC5/I2C_MASTER.c **** *******************************************************************************/
 851:.\Generated_Source\PSoC5/I2C_MASTER.c **** void I2C_MasterClearWriteBuf(void) 
 852:.\Generated_Source\PSoC5/I2C_MASTER.c **** {
ARM GAS  C:\Users\Eih3\AppData\Local\Temp\ccGBH7mu.s 			page 32


 886              		.loc 1 852 0
 887              		.cfi_startproc
 888              		@ args = 0, pretend = 0, frame = 0
 889              		@ frame_needed = 0, uses_anonymous_args = 0
 890              		@ link register save eliminated.
 853:.\Generated_Source\PSoC5/I2C_MASTER.c ****     I2C_DisableInt(); /* Lock from interrupt */
 891              		.loc 1 853 0
 892 0000 074A     		ldr	r2, .L109
 893 0002 4FF40043 		mov	r3, #32768
 894 0006 1360     		str	r3, [r2]
 854:.\Generated_Source\PSoC5/I2C_MASTER.c **** 
 855:.\Generated_Source\PSoC5/I2C_MASTER.c ****     I2C_mstrWrBufIndex = 0u;
 895              		.loc 1 855 0
 896 0008 064A     		ldr	r2, .L109+4
 897 000a 0021     		movs	r1, #0
 898 000c 1170     		strb	r1, [r2]
 856:.\Generated_Source\PSoC5/I2C_MASTER.c ****     I2C_mstrStatus    &= (uint8) ~I2C_MSTAT_WR_CMPLT;
 899              		.loc 1 856 0
 900 000e 064A     		ldr	r2, .L109+8
 901 0010 1178     		ldrb	r1, [r2]	@ zero_extendqisi2
 902 0012 01F0FD01 		and	r1, r1, #253
 903 0016 1170     		strb	r1, [r2]
 857:.\Generated_Source\PSoC5/I2C_MASTER.c **** 
 858:.\Generated_Source\PSoC5/I2C_MASTER.c ****     I2C_EnableInt(); /* Release lock */
 904              		.loc 1 858 0
 905 0018 044A     		ldr	r2, .L109+12
 906 001a 1360     		str	r3, [r2]
 907 001c 7047     		bx	lr
 908              	.L110:
 909 001e 00BF     		.align	2
 910              	.L109:
 911 0020 80E100E0 		.word	-536813184
 912 0024 00000000 		.word	I2C_mstrWrBufIndex
 913 0028 00000000 		.word	I2C_mstrStatus
 914 002c 00E100E0 		.word	-536813312
 915              		.cfi_endproc
 916              	.LFE12:
 917              		.size	I2C_MasterClearWriteBuf, .-I2C_MasterClearWriteBuf
 918              		.comm	I2C_mstrWrBufIndex,1,1
 919              		.comm	I2C_mstrWrBufSize,1,1
 920              		.comm	I2C_mstrWrBufPtr,4,4
 921              		.comm	I2C_mstrRdBufIndex,1,1
 922              		.comm	I2C_mstrRdBufSize,1,1
 923              		.comm	I2C_mstrRdBufPtr,4,4
 924              		.comm	I2C_mstrControl,1,1
 925              		.comm	I2C_mstrStatus,1,1
 926              		.text
 927              	.Letext0:
 928              		.file 2 ".\\Generated_Source\\PSoC5\\cytypes.h"
 929              		.file 3 ".\\Generated_Source\\PSoC5\\I2C_PVT.h"