ARM GAS  C:\Users\Eih3\AppData\Local\Temp\ccEvUY2q.s 			page 1


   1              		.syntax unified
   2              		.cpu cortex-m3
   3              		.fpu softvfp
   4              		.eabi_attribute 20, 1
   5              		.eabi_attribute 21, 1
   6              		.eabi_attribute 23, 3
   7              		.eabi_attribute 24, 1
   8              		.eabi_attribute 25, 1
   9              		.eabi_attribute 26, 1
  10              		.eabi_attribute 30, 4
  11              		.eabi_attribute 34, 1
  12              		.eabi_attribute 18, 4
  13              		.thumb
  14              		.file	"Interruptions.c"
  15              		.text
  16              	.Ltext0:
  17              		.cfi_sections	.debug_frame
  18              		.section	.text.Rx_ISR,"ax",%progbits
  19              		.align	1
  20              		.global	Rx_ISR
  21              		.thumb
  22              		.thumb_func
  23              		.type	Rx_ISR, %function
  24              	Rx_ISR:
  25              	.LFB56:
  26              		.file 1 ".\\Interruptions.c"
   1:.\Interruptions.c **** /***************************************************************
   2:.\Interruptions.c **** * Nom Fichier: Interruptions.c
   3:.\Interruptions.c **** *
   4:.\Interruptions.c **** * Fonctions: - Interruption UART Rx  
   5:.\Interruptions.c **** *            - Interruption 
   6:.\Interruptions.c **** *
   7:.\Interruptions.c **** ****************************************************************
   8:.\Interruptions.c **** * CARNUS 2015, Escamez Michel - Soler Donovan - Verdier Jordan
   9:.\Interruptions.c **** ***************************************************************/
  10:.\Interruptions.c **** 
  11:.\Interruptions.c **** /**** Déclarations & Directives ****/
  12:.\Interruptions.c **** #include "Application.h"
  13:.\Interruptions.c **** 
  14:.\Interruptions.c **** /**** Déclarations Variables ****/   
  15:.\Interruptions.c **** extern uint8 RxData;
  16:.\Interruptions.c **** extern uint8 ConfigEnd; //La configuration du module est finie
  17:.\Interruptions.c **** extern uint8 Linked; //Client connecté ? 1u oui; 0u non
  18:.\Interruptions.c **** 
  19:.\Interruptions.c **** /**** Interruption UART Rx ****/    
  20:.\Interruptions.c **** CY_ISR(Rx_ISR)
  21:.\Interruptions.c **** {
  27              		.loc 1 21 0
  28              		.cfi_startproc
  29              		@ args = 0, pretend = 0, frame = 0
  30              		@ frame_needed = 0, uses_anonymous_args = 0
  31 0000 38B5     		push	{r3, r4, r5, lr}
  32              		.cfi_def_cfa_offset 16
  33              		.cfi_offset 3, -16
  34              		.cfi_offset 4, -12
  35              		.cfi_offset 5, -8
  36              		.cfi_offset 14, -4
ARM GAS  C:\Users\Eih3\AppData\Local\Temp\ccEvUY2q.s 			page 2


  22:.\Interruptions.c ****     UART_ReadRxStatus();
  37              		.loc 1 22 0
  38 0002 FFF7FEFF 		bl	UART_ReadRxStatus
  39              	.LVL0:
  23:.\Interruptions.c ****     RxData = UART_GetByte();
  40              		.loc 1 23 0
  41 0006 FFF7FEFF 		bl	UART_GetByte
  42              	.LVL1:
  24:.\Interruptions.c ****     
  25:.\Interruptions.c ****     if (ConfigEnd && RxData == 0x3F) TCPOK();
  43              		.loc 1 25 0
  44 000a 0E4B     		ldr	r3, .L17
  23:.\Interruptions.c ****     RxData = UART_GetByte();
  45              		.loc 1 23 0
  46 000c 0E4A     		ldr	r2, .L17+4
  47              		.loc 1 25 0
  48 000e 1978     		ldrb	r1, [r3]	@ zero_extendqisi2
  23:.\Interruptions.c ****     RxData = UART_GetByte();
  49              		.loc 1 23 0
  50 0010 C0B2     		uxtb	r0, r0
  51 0012 1070     		strb	r0, [r2]
  52 0014 1446     		mov	r4, r2
  53 0016 1D46     		mov	r5, r3
  54              		.loc 1 25 0
  55 0018 19B1     		cbz	r1, .L2
  56              		.loc 1 25 0 is_stmt 0 discriminator 1
  57 001a 3F28     		cmp	r0, #63
  58 001c 01D1     		bne	.L2
  59 001e FFF7FEFF 		bl	TCPOK
  60              	.LVL2:
  61              	.L2:
  26:.\Interruptions.c ****     
  27:.\Interruptions.c ****     LCD_Position(0, 10);
  62              		.loc 1 27 0 is_stmt 1
  63 0022 0020     		movs	r0, #0
  64 0024 0A21     		movs	r1, #10
  65 0026 FFF7FEFF 		bl	LCD_Position
  66              	.LVL3:
  28:.\Interruptions.c ****     if (ConfigEnd && RxData && Linked) LCD_PutChar(RxData);
  67              		.loc 1 28 0
  68 002a 2B78     		ldrb	r3, [r5]	@ zero_extendqisi2
  69 002c 43B1     		cbz	r3, .L1
  70              	.LBB4:
  71              	.LBB5:
  72 002e 2078     		ldrb	r0, [r4]	@ zero_extendqisi2
  73 0030 30B1     		cbz	r0, .L1
  74 0032 064B     		ldr	r3, .L17+8
  75 0034 1B78     		ldrb	r3, [r3]	@ zero_extendqisi2
  76 0036 1BB1     		cbz	r3, .L1
  77              	.LBE5:
  78              	.LBE4:
  29:.\Interruptions.c **** }
  79              		.loc 1 29 0
  80 0038 BDE83840 		pop	{r3, r4, r5, lr}
  81              	.LBB7:
  82              	.LBB6:
  28:.\Interruptions.c ****     if (ConfigEnd && RxData && Linked) LCD_PutChar(RxData);
ARM GAS  C:\Users\Eih3\AppData\Local\Temp\ccEvUY2q.s 			page 3


  83              		.loc 1 28 0
  84 003c FFF7FEBF 		b	LCD_PutChar
  85              	.LVL4:
  86              	.L1:
  87 0040 38BD     		pop	{r3, r4, r5, pc}
  88              	.L18:
  89 0042 00BF     		.align	2
  90              	.L17:
  91 0044 00000000 		.word	ConfigEnd
  92 0048 00000000 		.word	RxData
  93 004c 00000000 		.word	Linked
  94              	.LBE6:
  95              	.LBE7:
  96              		.cfi_endproc
  97              	.LFE56:
  98              		.size	Rx_ISR, .-Rx_ISR
  99              		.section	.text.Init_Interruptions,"ax",%progbits
 100              		.align	1
 101              		.global	Init_Interruptions
 102              		.thumb
 103              		.thumb_func
 104              		.type	Init_Interruptions, %function
 105              	Init_Interruptions:
 106              	.LFB57:
  30:.\Interruptions.c **** 
  31:.\Interruptions.c **** /**** Initialisation Interruptions ****/
  32:.\Interruptions.c **** void Init_Interruptions()
  33:.\Interruptions.c **** {
 107              		.loc 1 33 0
 108              		.cfi_startproc
 109              		@ args = 0, pretend = 0, frame = 0
 110              		@ frame_needed = 0, uses_anonymous_args = 0
 111 0000 08B5     		push	{r3, lr}
 112              		.cfi_def_cfa_offset 8
 113              		.cfi_offset 3, -8
 114              		.cfi_offset 14, -4
  34:.\Interruptions.c ****     CYGlobalIntEnable;
 115              		.loc 1 34 0
 116              	@ 34 ".\Interruptions.c" 1
 117 0002 62B6     		CPSIE   i
 118              	@ 0 "" 2
  35:.\Interruptions.c ****     Rx_Int_Start();
 119              		.loc 1 35 0
 120              		.thumb
 121 0004 FFF7FEFF 		bl	Rx_Int_Start
 122              	.LVL5:
  36:.\Interruptions.c ****     Rx_Int_SetVector(Rx_ISR);
  37:.\Interruptions.c **** }
 123              		.loc 1 37 0
 124 0008 BDE80840 		pop	{r3, lr}
  36:.\Interruptions.c ****     Rx_Int_SetVector(Rx_ISR);
 125              		.loc 1 36 0
 126 000c 0148     		ldr	r0, .L20
 127 000e FFF7FEBF 		b	Rx_Int_SetVector
 128              	.LVL6:
 129              	.L21:
 130 0012 00BF     		.align	2
ARM GAS  C:\Users\Eih3\AppData\Local\Temp\ccEvUY2q.s 			page 4


 131              	.L20:
 132 0014 00000000 		.word	Rx_ISR
 133              		.cfi_endproc
 134              	.LFE57:
 135              		.size	Init_Interruptions, .-Init_Interruptions
 136              		.comm	i,1,1
 137              		.text
 138              	.Letext0:
 139              		.file 2 "c:\\program files (x86)\\cypress\\psoc creator\\3.1\\psoc creator\\import\\gnu_cs\\arm\\4
 140              		.file 3 "c:\\program files (x86)\\cypress\\psoc creator\\3.1\\psoc creator\\import\\gnu_cs\\arm\\4
 141              		.file 4 ".\\Generated_Source\\PSoC5/cytypes.h"
 142              		.file 5 ".\\Generated_Source\\PSoC5/core_cm3.h"
 143              		.file 6 ".\\Generated_Source\\PSoC5/UART.h"
 144              		.file 7 ".\\Generated_Source\\PSoC5/LCD.h"
 145              		.file 8 ".\\Generated_Source\\PSoC5/Rx_Int.h"
 146              		.file 9 ".\\WIFI.h"
 147              		.file 10 ".\\EEPROM.h"