ARM GAS  C:\Users\Eih3\AppData\Local\Temp\cc6gnJb2.s 			page 1


   1              		.syntax unified
   2              		.cpu cortex-m3
   3              		.fpu softvfp
   4              		.eabi_attribute 20, 1
   5              		.eabi_attribute 21, 1
   6              		.eabi_attribute 23, 3
   7              		.eabi_attribute 24, 1
   8              		.eabi_attribute 25, 1
   9              		.eabi_attribute 26, 1
  10              		.eabi_attribute 30, 4
  11              		.eabi_attribute 34, 1
  12              		.eabi_attribute 18, 4
  13              		.thumb
  14              		.file	"LCD.c"
  15              		.text
  16              	.Ltext0:
  17              		.cfi_sections	.debug_frame
  18              		.section	.text.LCD_WrCntrlNib,"ax",%progbits
  19              		.align	1
  20              		.thumb
  21              		.thumb_func
  22              		.type	LCD_WrCntrlNib, %function
  23              	LCD_WrCntrlNib:
  24              	.LFB11:
  25              		.file 1 ".\\Generated_Source\\PSoC5\\LCD.c"
   1:.\Generated_Source\PSoC5/LCD.c **** /*******************************************************************************
   2:.\Generated_Source\PSoC5/LCD.c **** * File Name: LCD.c
   3:.\Generated_Source\PSoC5/LCD.c **** * Version 2.10
   4:.\Generated_Source\PSoC5/LCD.c **** *
   5:.\Generated_Source\PSoC5/LCD.c **** * Description:
   6:.\Generated_Source\PSoC5/LCD.c **** *  This file provides source code for the Character LCD component's API.
   7:.\Generated_Source\PSoC5/LCD.c **** *
   8:.\Generated_Source\PSoC5/LCD.c **** * Note:
   9:.\Generated_Source\PSoC5/LCD.c **** *
  10:.\Generated_Source\PSoC5/LCD.c **** ********************************************************************************
  11:.\Generated_Source\PSoC5/LCD.c **** * Copyright 2008-2014, Cypress Semiconductor Corporation.  All rights reserved.
  12:.\Generated_Source\PSoC5/LCD.c **** * You may use this file only in accordance with the license, terms, conditions,
  13:.\Generated_Source\PSoC5/LCD.c **** * disclaimers, and limitations in the end user license agreement accompanying
  14:.\Generated_Source\PSoC5/LCD.c **** * the software package with which this file was provided.
  15:.\Generated_Source\PSoC5/LCD.c **** *******************************************************************************/
  16:.\Generated_Source\PSoC5/LCD.c **** 
  17:.\Generated_Source\PSoC5/LCD.c **** #include "CyLib.h"
  18:.\Generated_Source\PSoC5/LCD.c **** #include "LCD.h"
  19:.\Generated_Source\PSoC5/LCD.c **** 
  20:.\Generated_Source\PSoC5/LCD.c **** 
  21:.\Generated_Source\PSoC5/LCD.c **** static void LCD_WrDatNib(uint8 nibble) ;
  22:.\Generated_Source\PSoC5/LCD.c **** static void LCD_WrCntrlNib(uint8 nibble) ;
  23:.\Generated_Source\PSoC5/LCD.c **** 
  24:.\Generated_Source\PSoC5/LCD.c **** /* Stores state of component. Indicates whether component is or not
  25:.\Generated_Source\PSoC5/LCD.c **** * in enable state.
  26:.\Generated_Source\PSoC5/LCD.c **** */
  27:.\Generated_Source\PSoC5/LCD.c **** uint8 LCD_enableState = 0u;
  28:.\Generated_Source\PSoC5/LCD.c **** 
  29:.\Generated_Source\PSoC5/LCD.c **** uint8 LCD_initVar = 0u;
  30:.\Generated_Source\PSoC5/LCD.c **** 
  31:.\Generated_Source\PSoC5/LCD.c **** 
  32:.\Generated_Source\PSoC5/LCD.c **** /*******************************************************************************
ARM GAS  C:\Users\Eih3\AppData\Local\Temp\cc6gnJb2.s 			page 2


  33:.\Generated_Source\PSoC5/LCD.c **** * Function Name: LCD_Init
  34:.\Generated_Source\PSoC5/LCD.c **** ********************************************************************************
  35:.\Generated_Source\PSoC5/LCD.c **** *
  36:.\Generated_Source\PSoC5/LCD.c **** * Summary:
  37:.\Generated_Source\PSoC5/LCD.c **** *  Performs initialization required for the components normal work.
  38:.\Generated_Source\PSoC5/LCD.c **** *  This function initializes the LCD hardware module as follows:
  39:.\Generated_Source\PSoC5/LCD.c **** *        Enables a 4-bit interface
  40:.\Generated_Source\PSoC5/LCD.c **** *        Clears the display
  41:.\Generated_Source\PSoC5/LCD.c **** *        Enables the auto cursor increment
  42:.\Generated_Source\PSoC5/LCD.c **** *        Resets the cursor to start position
  43:.\Generated_Source\PSoC5/LCD.c **** *  Also, it loads a custom character set to the LCD if it was defined in the customizer.
  44:.\Generated_Source\PSoC5/LCD.c **** *
  45:.\Generated_Source\PSoC5/LCD.c **** * Parameters:
  46:.\Generated_Source\PSoC5/LCD.c **** *  None.
  47:.\Generated_Source\PSoC5/LCD.c **** *
  48:.\Generated_Source\PSoC5/LCD.c **** * Return:
  49:.\Generated_Source\PSoC5/LCD.c **** *  None.
  50:.\Generated_Source\PSoC5/LCD.c **** *
  51:.\Generated_Source\PSoC5/LCD.c **** * Reentrant:
  52:.\Generated_Source\PSoC5/LCD.c **** *  No.
  53:.\Generated_Source\PSoC5/LCD.c **** *
  54:.\Generated_Source\PSoC5/LCD.c **** *******************************************************************************/
  55:.\Generated_Source\PSoC5/LCD.c **** void LCD_Init(void) 
  56:.\Generated_Source\PSoC5/LCD.c **** {
  57:.\Generated_Source\PSoC5/LCD.c ****     /* INIT CODE */
  58:.\Generated_Source\PSoC5/LCD.c ****     CyDelay(40u);                                                        /* Delay 40 ms */
  59:.\Generated_Source\PSoC5/LCD.c ****     LCD_WrCntrlNib(LCD_DISPLAY_8_BIT_INIT);    /* Selects 8-bit mode */
  60:.\Generated_Source\PSoC5/LCD.c ****     CyDelay(5u);                                                         /* Delay 5 ms */
  61:.\Generated_Source\PSoC5/LCD.c ****     LCD_WrCntrlNib(LCD_DISPLAY_8_BIT_INIT);    /* Selects 8-bit mode */
  62:.\Generated_Source\PSoC5/LCD.c ****     CyDelay(15u);                                                        /* Delay 15 ms */
  63:.\Generated_Source\PSoC5/LCD.c ****     LCD_WrCntrlNib(LCD_DISPLAY_8_BIT_INIT);    /* Selects 8-bit mode */
  64:.\Generated_Source\PSoC5/LCD.c ****     CyDelay(1u);                                                         /* Delay 1 ms */
  65:.\Generated_Source\PSoC5/LCD.c ****     LCD_WrCntrlNib(LCD_DISPLAY_4_BIT_INIT);    /* Selects 4-bit mode */
  66:.\Generated_Source\PSoC5/LCD.c ****     CyDelay(5u);                                                         /* Delay 5 ms */
  67:.\Generated_Source\PSoC5/LCD.c **** 
  68:.\Generated_Source\PSoC5/LCD.c ****     LCD_WriteControl(LCD_CURSOR_AUTO_INCR_ON);    /* Incr Cursor After Writes */
  69:.\Generated_Source\PSoC5/LCD.c ****     LCD_WriteControl(LCD_DISPLAY_CURSOR_ON);      /* Turn Display, Cursor ON */
  70:.\Generated_Source\PSoC5/LCD.c ****     LCD_WriteControl(LCD_DISPLAY_2_LINES_5x10);   /* 2 Lines by 5x10 Characters */
  71:.\Generated_Source\PSoC5/LCD.c ****     LCD_WriteControl(LCD_DISPLAY_CURSOR_OFF);     /* Turn Display, Cursor OFF */
  72:.\Generated_Source\PSoC5/LCD.c ****     LCD_WriteControl(LCD_CLEAR_DISPLAY);          /* Clear LCD Screen */
  73:.\Generated_Source\PSoC5/LCD.c ****     LCD_WriteControl(LCD_DISPLAY_ON_CURSOR_OFF);  /* Turn Display ON, Cursor OFF */
  74:.\Generated_Source\PSoC5/LCD.c ****     LCD_WriteControl(LCD_RESET_CURSOR_POSITION);  /* Set Cursor to 0,0 */
  75:.\Generated_Source\PSoC5/LCD.c ****     CyDelay(5u);
  76:.\Generated_Source\PSoC5/LCD.c **** 
  77:.\Generated_Source\PSoC5/LCD.c ****     #if(LCD_CUSTOM_CHAR_SET != LCD_NONE)
  78:.\Generated_Source\PSoC5/LCD.c ****         LCD_LoadCustomFonts(LCD_customFonts);
  79:.\Generated_Source\PSoC5/LCD.c ****     #endif /* LCD_CUSTOM_CHAR_SET != LCD_NONE */
  80:.\Generated_Source\PSoC5/LCD.c **** }
  81:.\Generated_Source\PSoC5/LCD.c **** 
  82:.\Generated_Source\PSoC5/LCD.c **** 
  83:.\Generated_Source\PSoC5/LCD.c **** /*******************************************************************************
  84:.\Generated_Source\PSoC5/LCD.c **** * Function Name: LCD_Enable
  85:.\Generated_Source\PSoC5/LCD.c **** ********************************************************************************
  86:.\Generated_Source\PSoC5/LCD.c **** *
  87:.\Generated_Source\PSoC5/LCD.c **** * Summary:
  88:.\Generated_Source\PSoC5/LCD.c **** *  Turns on the display.
  89:.\Generated_Source\PSoC5/LCD.c **** *
ARM GAS  C:\Users\Eih3\AppData\Local\Temp\cc6gnJb2.s 			page 3


  90:.\Generated_Source\PSoC5/LCD.c **** * Parameters:
  91:.\Generated_Source\PSoC5/LCD.c **** *  None.
  92:.\Generated_Source\PSoC5/LCD.c **** *
  93:.\Generated_Source\PSoC5/LCD.c **** * Return:
  94:.\Generated_Source\PSoC5/LCD.c **** *  None.
  95:.\Generated_Source\PSoC5/LCD.c **** *
  96:.\Generated_Source\PSoC5/LCD.c **** * Reentrant:
  97:.\Generated_Source\PSoC5/LCD.c **** *  No.
  98:.\Generated_Source\PSoC5/LCD.c **** *
  99:.\Generated_Source\PSoC5/LCD.c **** * Theory:
 100:.\Generated_Source\PSoC5/LCD.c **** *  This function has no effect when it is called the first time as
 101:.\Generated_Source\PSoC5/LCD.c **** *  LCD_Init() turns on the LCD.
 102:.\Generated_Source\PSoC5/LCD.c **** *
 103:.\Generated_Source\PSoC5/LCD.c **** *******************************************************************************/
 104:.\Generated_Source\PSoC5/LCD.c **** void LCD_Enable(void) 
 105:.\Generated_Source\PSoC5/LCD.c **** {
 106:.\Generated_Source\PSoC5/LCD.c ****     LCD_DisplayOn();
 107:.\Generated_Source\PSoC5/LCD.c ****     LCD_enableState = 1u;
 108:.\Generated_Source\PSoC5/LCD.c **** }
 109:.\Generated_Source\PSoC5/LCD.c **** 
 110:.\Generated_Source\PSoC5/LCD.c **** 
 111:.\Generated_Source\PSoC5/LCD.c **** /*******************************************************************************
 112:.\Generated_Source\PSoC5/LCD.c **** * Function Name: LCD_Start
 113:.\Generated_Source\PSoC5/LCD.c **** ********************************************************************************
 114:.\Generated_Source\PSoC5/LCD.c **** *
 115:.\Generated_Source\PSoC5/LCD.c **** * Summary:
 116:.\Generated_Source\PSoC5/LCD.c **** *  Performs initialization required for the components normal work.
 117:.\Generated_Source\PSoC5/LCD.c **** *  This function initializes the LCD hardware module as follows:
 118:.\Generated_Source\PSoC5/LCD.c **** *        Enables 4-bit interface
 119:.\Generated_Source\PSoC5/LCD.c **** *        Clears the display
 120:.\Generated_Source\PSoC5/LCD.c **** *        Enables auto cursor increment
 121:.\Generated_Source\PSoC5/LCD.c **** *        Resets the cursor to start position
 122:.\Generated_Source\PSoC5/LCD.c **** *  Also, it loads a custom character set to the LCD if it was defined in the customizer.
 123:.\Generated_Source\PSoC5/LCD.c **** *  If it was not the first call in this project, then it just turns on the
 124:.\Generated_Source\PSoC5/LCD.c **** *  display
 125:.\Generated_Source\PSoC5/LCD.c **** *
 126:.\Generated_Source\PSoC5/LCD.c **** *
 127:.\Generated_Source\PSoC5/LCD.c **** * Parameters:
 128:.\Generated_Source\PSoC5/LCD.c **** *  LCD_initVar - global variable.
 129:.\Generated_Source\PSoC5/LCD.c **** *
 130:.\Generated_Source\PSoC5/LCD.c **** * Return:
 131:.\Generated_Source\PSoC5/LCD.c **** *  LCD_initVar - global variable.
 132:.\Generated_Source\PSoC5/LCD.c **** *
 133:.\Generated_Source\PSoC5/LCD.c **** * Reentrant:
 134:.\Generated_Source\PSoC5/LCD.c **** *  No.
 135:.\Generated_Source\PSoC5/LCD.c **** *
 136:.\Generated_Source\PSoC5/LCD.c **** *******************************************************************************/
 137:.\Generated_Source\PSoC5/LCD.c **** void LCD_Start(void) 
 138:.\Generated_Source\PSoC5/LCD.c **** {
 139:.\Generated_Source\PSoC5/LCD.c ****     /* If not initialized, perform initialization */
 140:.\Generated_Source\PSoC5/LCD.c ****     if(LCD_initVar == 0u)
 141:.\Generated_Source\PSoC5/LCD.c ****     {
 142:.\Generated_Source\PSoC5/LCD.c ****         LCD_Init();
 143:.\Generated_Source\PSoC5/LCD.c ****         LCD_initVar = 1u;
 144:.\Generated_Source\PSoC5/LCD.c ****     }
 145:.\Generated_Source\PSoC5/LCD.c **** 
 146:.\Generated_Source\PSoC5/LCD.c ****     /* Turn on the LCD */
ARM GAS  C:\Users\Eih3\AppData\Local\Temp\cc6gnJb2.s 			page 4


 147:.\Generated_Source\PSoC5/LCD.c ****     LCD_Enable();
 148:.\Generated_Source\PSoC5/LCD.c **** }
 149:.\Generated_Source\PSoC5/LCD.c **** 
 150:.\Generated_Source\PSoC5/LCD.c **** 
 151:.\Generated_Source\PSoC5/LCD.c **** /*******************************************************************************
 152:.\Generated_Source\PSoC5/LCD.c **** * Function Name: LCD_Stop
 153:.\Generated_Source\PSoC5/LCD.c **** ********************************************************************************
 154:.\Generated_Source\PSoC5/LCD.c **** *
 155:.\Generated_Source\PSoC5/LCD.c **** * Summary:
 156:.\Generated_Source\PSoC5/LCD.c **** *  Turns off the display of the LCD screen.
 157:.\Generated_Source\PSoC5/LCD.c **** *
 158:.\Generated_Source\PSoC5/LCD.c **** * Parameters:
 159:.\Generated_Source\PSoC5/LCD.c **** *  None.
 160:.\Generated_Source\PSoC5/LCD.c **** *
 161:.\Generated_Source\PSoC5/LCD.c **** * Return:
 162:.\Generated_Source\PSoC5/LCD.c **** *  None.
 163:.\Generated_Source\PSoC5/LCD.c **** *
 164:.\Generated_Source\PSoC5/LCD.c **** * Reentrant:
 165:.\Generated_Source\PSoC5/LCD.c **** *  No.
 166:.\Generated_Source\PSoC5/LCD.c **** *
 167:.\Generated_Source\PSoC5/LCD.c **** *******************************************************************************/
 168:.\Generated_Source\PSoC5/LCD.c **** void LCD_Stop(void) 
 169:.\Generated_Source\PSoC5/LCD.c **** {
 170:.\Generated_Source\PSoC5/LCD.c ****     /* Calls LCD Off Macro */
 171:.\Generated_Source\PSoC5/LCD.c ****     LCD_DisplayOff();
 172:.\Generated_Source\PSoC5/LCD.c ****     LCD_enableState = 0u;
 173:.\Generated_Source\PSoC5/LCD.c **** }
 174:.\Generated_Source\PSoC5/LCD.c **** 
 175:.\Generated_Source\PSoC5/LCD.c **** 
 176:.\Generated_Source\PSoC5/LCD.c **** /*******************************************************************************
 177:.\Generated_Source\PSoC5/LCD.c **** *  Function Name: LCD_Position
 178:.\Generated_Source\PSoC5/LCD.c **** ********************************************************************************
 179:.\Generated_Source\PSoC5/LCD.c **** *
 180:.\Generated_Source\PSoC5/LCD.c **** * Summary:
 181:.\Generated_Source\PSoC5/LCD.c **** *  Moves the active cursor location to a point specified by the input arguments
 182:.\Generated_Source\PSoC5/LCD.c **** *
 183:.\Generated_Source\PSoC5/LCD.c **** * Parameters:
 184:.\Generated_Source\PSoC5/LCD.c **** *  row:    Specific row of LCD module to be written
 185:.\Generated_Source\PSoC5/LCD.c **** *  column: Column of LCD module to be written
 186:.\Generated_Source\PSoC5/LCD.c **** *
 187:.\Generated_Source\PSoC5/LCD.c **** * Return:
 188:.\Generated_Source\PSoC5/LCD.c **** *  None.
 189:.\Generated_Source\PSoC5/LCD.c **** *
 190:.\Generated_Source\PSoC5/LCD.c **** * Note:
 191:.\Generated_Source\PSoC5/LCD.c **** *  This only applies for LCD displays that use the 2X40 address mode.
 192:.\Generated_Source\PSoC5/LCD.c **** *  In this case Row 2 starts with a 0x28 offset from Row 1.
 193:.\Generated_Source\PSoC5/LCD.c **** *  When there are more than 2 rows, each row must be fewer than 20 characters.
 194:.\Generated_Source\PSoC5/LCD.c **** *
 195:.\Generated_Source\PSoC5/LCD.c **** *******************************************************************************/
 196:.\Generated_Source\PSoC5/LCD.c **** void LCD_Position(uint8 row, uint8 column) 
 197:.\Generated_Source\PSoC5/LCD.c **** {
 198:.\Generated_Source\PSoC5/LCD.c ****     switch (row)
 199:.\Generated_Source\PSoC5/LCD.c ****     {
 200:.\Generated_Source\PSoC5/LCD.c ****         case (uint8)0:
 201:.\Generated_Source\PSoC5/LCD.c ****             LCD_WriteControl(LCD_ROW_0_START + column);
 202:.\Generated_Source\PSoC5/LCD.c ****             break;
 203:.\Generated_Source\PSoC5/LCD.c ****         case (uint8) 1:
ARM GAS  C:\Users\Eih3\AppData\Local\Temp\cc6gnJb2.s 			page 5


 204:.\Generated_Source\PSoC5/LCD.c ****             LCD_WriteControl(LCD_ROW_1_START + column);
 205:.\Generated_Source\PSoC5/LCD.c ****             break;
 206:.\Generated_Source\PSoC5/LCD.c ****         case (uint8) 2:
 207:.\Generated_Source\PSoC5/LCD.c ****             LCD_WriteControl(LCD_ROW_2_START + column);
 208:.\Generated_Source\PSoC5/LCD.c ****             break;
 209:.\Generated_Source\PSoC5/LCD.c ****         case (uint8) 3:
 210:.\Generated_Source\PSoC5/LCD.c ****             LCD_WriteControl(LCD_ROW_3_START + column);
 211:.\Generated_Source\PSoC5/LCD.c ****             break;
 212:.\Generated_Source\PSoC5/LCD.c ****         default:
 213:.\Generated_Source\PSoC5/LCD.c ****             /* if default case is hit, invalid row argument was passed.*/
 214:.\Generated_Source\PSoC5/LCD.c ****             break;
 215:.\Generated_Source\PSoC5/LCD.c ****     }
 216:.\Generated_Source\PSoC5/LCD.c **** }
 217:.\Generated_Source\PSoC5/LCD.c **** 
 218:.\Generated_Source\PSoC5/LCD.c **** 
 219:.\Generated_Source\PSoC5/LCD.c **** /*******************************************************************************
 220:.\Generated_Source\PSoC5/LCD.c **** * Function Name: LCD_PrintString
 221:.\Generated_Source\PSoC5/LCD.c **** ********************************************************************************
 222:.\Generated_Source\PSoC5/LCD.c **** *
 223:.\Generated_Source\PSoC5/LCD.c **** * Summary:
 224:.\Generated_Source\PSoC5/LCD.c **** *  Writes a zero terminated string to the LCD.
 225:.\Generated_Source\PSoC5/LCD.c **** *
 226:.\Generated_Source\PSoC5/LCD.c **** * Parameters:
 227:.\Generated_Source\PSoC5/LCD.c **** *  string: Pointer to head of char8 array to be written to the LCD module
 228:.\Generated_Source\PSoC5/LCD.c **** *
 229:.\Generated_Source\PSoC5/LCD.c **** * Return:
 230:.\Generated_Source\PSoC5/LCD.c **** *  None.
 231:.\Generated_Source\PSoC5/LCD.c **** *
 232:.\Generated_Source\PSoC5/LCD.c **** *******************************************************************************/
 233:.\Generated_Source\PSoC5/LCD.c **** void LCD_PrintString(char8 const string[]) 
 234:.\Generated_Source\PSoC5/LCD.c **** {
 235:.\Generated_Source\PSoC5/LCD.c ****     uint8 indexU8 = 1u;
 236:.\Generated_Source\PSoC5/LCD.c ****     char8 current = *string;
 237:.\Generated_Source\PSoC5/LCD.c **** 
 238:.\Generated_Source\PSoC5/LCD.c ****     /* Until null is reached, print next character */
 239:.\Generated_Source\PSoC5/LCD.c ****     while((char8) '\0' != current)
 240:.\Generated_Source\PSoC5/LCD.c ****     {
 241:.\Generated_Source\PSoC5/LCD.c ****         LCD_WriteData((uint8)current);
 242:.\Generated_Source\PSoC5/LCD.c ****         current = string[indexU8];
 243:.\Generated_Source\PSoC5/LCD.c ****         indexU8++;
 244:.\Generated_Source\PSoC5/LCD.c ****     }
 245:.\Generated_Source\PSoC5/LCD.c **** }
 246:.\Generated_Source\PSoC5/LCD.c **** 
 247:.\Generated_Source\PSoC5/LCD.c **** 
 248:.\Generated_Source\PSoC5/LCD.c **** /*******************************************************************************
 249:.\Generated_Source\PSoC5/LCD.c **** *  Function Name: LCD_PutChar
 250:.\Generated_Source\PSoC5/LCD.c **** ********************************************************************************
 251:.\Generated_Source\PSoC5/LCD.c **** *
 252:.\Generated_Source\PSoC5/LCD.c **** * Summary:
 253:.\Generated_Source\PSoC5/LCD.c **** *  Writes a single character to the current cursor position of the LCD module.
 254:.\Generated_Source\PSoC5/LCD.c **** *  Custom character names (_CUSTOM_0 through
 255:.\Generated_Source\PSoC5/LCD.c **** *  _CUSTOM_7) are acceptable as inputs.
 256:.\Generated_Source\PSoC5/LCD.c **** *
 257:.\Generated_Source\PSoC5/LCD.c **** * Parameters:
 258:.\Generated_Source\PSoC5/LCD.c **** *  character: Character to be written to LCD
 259:.\Generated_Source\PSoC5/LCD.c **** *
 260:.\Generated_Source\PSoC5/LCD.c **** * Return:
ARM GAS  C:\Users\Eih3\AppData\Local\Temp\cc6gnJb2.s 			page 6


 261:.\Generated_Source\PSoC5/LCD.c **** *  None.
 262:.\Generated_Source\PSoC5/LCD.c **** *
 263:.\Generated_Source\PSoC5/LCD.c **** *******************************************************************************/
 264:.\Generated_Source\PSoC5/LCD.c **** void LCD_PutChar(char8 character) 
 265:.\Generated_Source\PSoC5/LCD.c **** {
 266:.\Generated_Source\PSoC5/LCD.c ****     LCD_WriteData((uint8)character);
 267:.\Generated_Source\PSoC5/LCD.c **** }
 268:.\Generated_Source\PSoC5/LCD.c **** 
 269:.\Generated_Source\PSoC5/LCD.c **** 
 270:.\Generated_Source\PSoC5/LCD.c **** /*******************************************************************************
 271:.\Generated_Source\PSoC5/LCD.c **** *  Function Name: LCD_WriteData
 272:.\Generated_Source\PSoC5/LCD.c **** ********************************************************************************
 273:.\Generated_Source\PSoC5/LCD.c **** *
 274:.\Generated_Source\PSoC5/LCD.c **** * Summary:
 275:.\Generated_Source\PSoC5/LCD.c **** *  Writes a data byte to the LCD module's Data Display RAM.
 276:.\Generated_Source\PSoC5/LCD.c **** *
 277:.\Generated_Source\PSoC5/LCD.c **** * Parameters:
 278:.\Generated_Source\PSoC5/LCD.c **** *  dByte: Byte to be written to the LCD module
 279:.\Generated_Source\PSoC5/LCD.c **** *
 280:.\Generated_Source\PSoC5/LCD.c **** * Return:
 281:.\Generated_Source\PSoC5/LCD.c **** *  None.
 282:.\Generated_Source\PSoC5/LCD.c **** *
 283:.\Generated_Source\PSoC5/LCD.c **** *******************************************************************************/
 284:.\Generated_Source\PSoC5/LCD.c **** void LCD_WriteData(uint8 dByte) 
 285:.\Generated_Source\PSoC5/LCD.c **** {
 286:.\Generated_Source\PSoC5/LCD.c ****     uint8 nibble;
 287:.\Generated_Source\PSoC5/LCD.c **** 
 288:.\Generated_Source\PSoC5/LCD.c ****     LCD_IsReady();
 289:.\Generated_Source\PSoC5/LCD.c ****     nibble = dByte >> LCD_NIBBLE_SHIFT;
 290:.\Generated_Source\PSoC5/LCD.c **** 
 291:.\Generated_Source\PSoC5/LCD.c ****     /* Write high nibble */
 292:.\Generated_Source\PSoC5/LCD.c ****     LCD_WrDatNib(nibble);
 293:.\Generated_Source\PSoC5/LCD.c **** 
 294:.\Generated_Source\PSoC5/LCD.c ****     nibble = dByte & LCD_NIBBLE_MASK;
 295:.\Generated_Source\PSoC5/LCD.c ****     /* Write low nibble */
 296:.\Generated_Source\PSoC5/LCD.c ****     LCD_WrDatNib(nibble);
 297:.\Generated_Source\PSoC5/LCD.c **** }
 298:.\Generated_Source\PSoC5/LCD.c **** 
 299:.\Generated_Source\PSoC5/LCD.c **** 
 300:.\Generated_Source\PSoC5/LCD.c **** /*******************************************************************************
 301:.\Generated_Source\PSoC5/LCD.c **** *  Function Name: LCD_WriteControl
 302:.\Generated_Source\PSoC5/LCD.c **** ********************************************************************************
 303:.\Generated_Source\PSoC5/LCD.c **** *
 304:.\Generated_Source\PSoC5/LCD.c **** * Summary:
 305:.\Generated_Source\PSoC5/LCD.c **** *  Writes a command byte to the LCD module.
 306:.\Generated_Source\PSoC5/LCD.c **** *
 307:.\Generated_Source\PSoC5/LCD.c **** * Parameters:
 308:.\Generated_Source\PSoC5/LCD.c **** *  cByte:  The byte to be written to theLCD module
 309:.\Generated_Source\PSoC5/LCD.c **** * 
 310:.\Generated_Source\PSoC5/LCD.c **** * Return:
 311:.\Generated_Source\PSoC5/LCD.c **** *  None.
 312:.\Generated_Source\PSoC5/LCD.c **** *
 313:.\Generated_Source\PSoC5/LCD.c **** *******************************************************************************/
 314:.\Generated_Source\PSoC5/LCD.c **** void LCD_WriteControl(uint8 cByte) 
 315:.\Generated_Source\PSoC5/LCD.c **** {
 316:.\Generated_Source\PSoC5/LCD.c ****     uint8 nibble;
 317:.\Generated_Source\PSoC5/LCD.c **** 
ARM GAS  C:\Users\Eih3\AppData\Local\Temp\cc6gnJb2.s 			page 7


 318:.\Generated_Source\PSoC5/LCD.c ****     LCD_IsReady();
 319:.\Generated_Source\PSoC5/LCD.c **** 
 320:.\Generated_Source\PSoC5/LCD.c ****     nibble = cByte >> LCD_NIBBLE_SHIFT;
 321:.\Generated_Source\PSoC5/LCD.c ****     
 322:.\Generated_Source\PSoC5/LCD.c ****     /* WrCntrlNib(High Nibble) */
 323:.\Generated_Source\PSoC5/LCD.c ****     LCD_WrCntrlNib(nibble);
 324:.\Generated_Source\PSoC5/LCD.c ****     nibble = cByte & LCD_NIBBLE_MASK;
 325:.\Generated_Source\PSoC5/LCD.c **** 
 326:.\Generated_Source\PSoC5/LCD.c ****     /* WrCntrlNib(Low Nibble) */
 327:.\Generated_Source\PSoC5/LCD.c ****     LCD_WrCntrlNib(nibble);
 328:.\Generated_Source\PSoC5/LCD.c **** }
 329:.\Generated_Source\PSoC5/LCD.c **** 
 330:.\Generated_Source\PSoC5/LCD.c **** 
 331:.\Generated_Source\PSoC5/LCD.c **** /*******************************************************************************
 332:.\Generated_Source\PSoC5/LCD.c **** * Function Name: LCD_IsReady
 333:.\Generated_Source\PSoC5/LCD.c **** ********************************************************************************
 334:.\Generated_Source\PSoC5/LCD.c **** *
 335:.\Generated_Source\PSoC5/LCD.c **** * Summary:
 336:.\Generated_Source\PSoC5/LCD.c **** *  Polls the LCD until the ready bit is set or a timeout occurs.
 337:.\Generated_Source\PSoC5/LCD.c **** *
 338:.\Generated_Source\PSoC5/LCD.c **** * Parameters:
 339:.\Generated_Source\PSoC5/LCD.c **** *  None.
 340:.\Generated_Source\PSoC5/LCD.c **** *
 341:.\Generated_Source\PSoC5/LCD.c **** * Return:
 342:.\Generated_Source\PSoC5/LCD.c **** *  None.
 343:.\Generated_Source\PSoC5/LCD.c **** *
 344:.\Generated_Source\PSoC5/LCD.c **** * Note:
 345:.\Generated_Source\PSoC5/LCD.c **** *  Changes the pins to High-Z.
 346:.\Generated_Source\PSoC5/LCD.c **** *
 347:.\Generated_Source\PSoC5/LCD.c **** *******************************************************************************/
 348:.\Generated_Source\PSoC5/LCD.c **** void LCD_IsReady(void) 
 349:.\Generated_Source\PSoC5/LCD.c **** {
 350:.\Generated_Source\PSoC5/LCD.c ****     uint8 value;
 351:.\Generated_Source\PSoC5/LCD.c ****     uint32 timeout;
 352:.\Generated_Source\PSoC5/LCD.c ****     timeout = LCD_READY_DELAY;
 353:.\Generated_Source\PSoC5/LCD.c **** 
 354:.\Generated_Source\PSoC5/LCD.c ****     /* Clear LCD port*/
 355:.\Generated_Source\PSoC5/LCD.c ****     LCD_PORT_DR_REG &= ((uint8)(~LCD_PORT_MASK));
 356:.\Generated_Source\PSoC5/LCD.c **** 
 357:.\Generated_Source\PSoC5/LCD.c ****     /* PSoC4 has a little different from PSoC3/5 port/pin organization for setting Drive Modes.
 358:.\Generated_Source\PSoC5/LCD.c ****   
 359:.\Generated_Source\PSoC5/LCD.c ****     */
 360:.\Generated_Source\PSoC5/LCD.c ****     #if (CY_PSOC4)
 361:.\Generated_Source\PSoC5/LCD.c ****         
 362:.\Generated_Source\PSoC5/LCD.c ****         /* Mask off data pins to clear old values out */
 363:.\Generated_Source\PSoC5/LCD.c ****         value = LCD_PORT_PC_REG & ((uint32) (~ LCD_DM_DATA_MASK));
 364:.\Generated_Source\PSoC5/LCD.c ****         /* Load in high Z values for data pins, others unchanged */
 365:.\Generated_Source\PSoC5/LCD.c ****         LCD_PORT_PC_REG = value | LCD_HIGH_Z_DATA_DM;
 366:.\Generated_Source\PSoC5/LCD.c **** 
 367:.\Generated_Source\PSoC5/LCD.c ****     #else
 368:.\Generated_Source\PSoC5/LCD.c ****     
 369:.\Generated_Source\PSoC5/LCD.c ****         /* Change Port to High-Z Status on data pins */
 370:.\Generated_Source\PSoC5/LCD.c **** 
 371:.\Generated_Source\PSoC5/LCD.c ****         /* Mask off data pins to clear old values out */
 372:.\Generated_Source\PSoC5/LCD.c ****         value = LCD_PORT_DM0_REG & ((uint8)(~LCD_DATA_MASK));
 373:.\Generated_Source\PSoC5/LCD.c ****         /* Load in high Z values for data pins, others unchanged */
 374:.\Generated_Source\PSoC5/LCD.c ****         LCD_PORT_DM0_REG = value | (LCD_HIGH_Z_DM0 & LCD_DATA_MASK);
ARM GAS  C:\Users\Eih3\AppData\Local\Temp\cc6gnJb2.s 			page 8


 375:.\Generated_Source\PSoC5/LCD.c **** 
 376:.\Generated_Source\PSoC5/LCD.c ****         /* Mask off data pins to clear old values out */
 377:.\Generated_Source\PSoC5/LCD.c ****         value = LCD_PORT_DM1_REG & ((uint8)(~LCD_DATA_MASK));
 378:.\Generated_Source\PSoC5/LCD.c ****         /* Load in high Z values for data pins, others unchanged */
 379:.\Generated_Source\PSoC5/LCD.c ****         LCD_PORT_DM1_REG = value;
 380:.\Generated_Source\PSoC5/LCD.c **** 
 381:.\Generated_Source\PSoC5/LCD.c ****         /* Mask off data pins to clear old values out */
 382:.\Generated_Source\PSoC5/LCD.c ****         value = LCD_PORT_DM2_REG & ((uint8)(~LCD_DATA_MASK));
 383:.\Generated_Source\PSoC5/LCD.c ****         /* Load in high Z values for data pins, others unchanged */
 384:.\Generated_Source\PSoC5/LCD.c ****         LCD_PORT_DM2_REG = value;
 385:.\Generated_Source\PSoC5/LCD.c ****     
 386:.\Generated_Source\PSoC5/LCD.c ****     #endif /* CY_PSOC4 */
 387:.\Generated_Source\PSoC5/LCD.c ****     
 388:.\Generated_Source\PSoC5/LCD.c ****     /* Make sure RS is low */
 389:.\Generated_Source\PSoC5/LCD.c ****     LCD_PORT_DR_REG &= ((uint8)(~LCD_RS));
 390:.\Generated_Source\PSoC5/LCD.c **** 
 391:.\Generated_Source\PSoC5/LCD.c ****     /* Set R/W high to read */
 392:.\Generated_Source\PSoC5/LCD.c ****     LCD_PORT_DR_REG |= LCD_RW;
 393:.\Generated_Source\PSoC5/LCD.c **** 
 394:.\Generated_Source\PSoC5/LCD.c ****     do
 395:.\Generated_Source\PSoC5/LCD.c ****     {
 396:.\Generated_Source\PSoC5/LCD.c ****         /* 40 ns delay required before rising Enable and 500ns between neighbour Enables */
 397:.\Generated_Source\PSoC5/LCD.c ****         CyDelayUs(0u);
 398:.\Generated_Source\PSoC5/LCD.c **** 
 399:.\Generated_Source\PSoC5/LCD.c ****         /* Set E high */
 400:.\Generated_Source\PSoC5/LCD.c ****         LCD_PORT_DR_REG |= LCD_E;
 401:.\Generated_Source\PSoC5/LCD.c **** 
 402:.\Generated_Source\PSoC5/LCD.c ****         /* 360 ns delay setup time for data pins */
 403:.\Generated_Source\PSoC5/LCD.c ****         CyDelayUs(1u);
 404:.\Generated_Source\PSoC5/LCD.c **** 
 405:.\Generated_Source\PSoC5/LCD.c ****         /* Get port state */
 406:.\Generated_Source\PSoC5/LCD.c ****         value = LCD_PORT_PS_REG;
 407:.\Generated_Source\PSoC5/LCD.c **** 
 408:.\Generated_Source\PSoC5/LCD.c ****         /* Set enable low */
 409:.\Generated_Source\PSoC5/LCD.c ****         LCD_PORT_DR_REG &= ((uint8)(~LCD_E));
 410:.\Generated_Source\PSoC5/LCD.c **** 
 411:.\Generated_Source\PSoC5/LCD.c ****         /* This gives true delay between disabling Enable bit and polling Ready bit */
 412:.\Generated_Source\PSoC5/LCD.c ****         CyDelayUs(0u);
 413:.\Generated_Source\PSoC5/LCD.c **** 
 414:.\Generated_Source\PSoC5/LCD.c ****         /* Extract ready bit */
 415:.\Generated_Source\PSoC5/LCD.c ****         value &= LCD_READY_BIT;
 416:.\Generated_Source\PSoC5/LCD.c **** 
 417:.\Generated_Source\PSoC5/LCD.c ****         /* Set E high as we in 4-bit interface we need extra operation */
 418:.\Generated_Source\PSoC5/LCD.c ****         LCD_PORT_DR_REG |= LCD_E;
 419:.\Generated_Source\PSoC5/LCD.c **** 
 420:.\Generated_Source\PSoC5/LCD.c ****         /* 360 ns delay setup time for data pins */
 421:.\Generated_Source\PSoC5/LCD.c ****         CyDelayUs(1u);
 422:.\Generated_Source\PSoC5/LCD.c **** 
 423:.\Generated_Source\PSoC5/LCD.c ****         /* Set enable low */
 424:.\Generated_Source\PSoC5/LCD.c ****         LCD_PORT_DR_REG &= ((uint8)(~LCD_E));
 425:.\Generated_Source\PSoC5/LCD.c **** 
 426:.\Generated_Source\PSoC5/LCD.c ****         /* If LCD is not ready make a delay */
 427:.\Generated_Source\PSoC5/LCD.c ****         if (value == 0u)
 428:.\Generated_Source\PSoC5/LCD.c ****         {
 429:.\Generated_Source\PSoC5/LCD.c ****             CyDelayUs(10u);
 430:.\Generated_Source\PSoC5/LCD.c ****         }
 431:.\Generated_Source\PSoC5/LCD.c **** 
ARM GAS  C:\Users\Eih3\AppData\Local\Temp\cc6gnJb2.s 			page 9


 432:.\Generated_Source\PSoC5/LCD.c ****         /* Repeat until bit 4 is not zero or until timeout. */
 433:.\Generated_Source\PSoC5/LCD.c ****         timeout--;
 434:.\Generated_Source\PSoC5/LCD.c **** 
 435:.\Generated_Source\PSoC5/LCD.c ****     } while ((value != 0u) && (timeout > 0u));
 436:.\Generated_Source\PSoC5/LCD.c **** 
 437:.\Generated_Source\PSoC5/LCD.c ****     /* Set R/W low to write */
 438:.\Generated_Source\PSoC5/LCD.c ****     LCD_PORT_DR_REG &= ((uint8)(~LCD_RW));
 439:.\Generated_Source\PSoC5/LCD.c **** 
 440:.\Generated_Source\PSoC5/LCD.c ****     /* Clear LCD port*/
 441:.\Generated_Source\PSoC5/LCD.c ****     LCD_PORT_DR_REG &= ((uint8)(~LCD_PORT_MASK));
 442:.\Generated_Source\PSoC5/LCD.c **** 
 443:.\Generated_Source\PSoC5/LCD.c ****     #if (CY_PSOC4)
 444:.\Generated_Source\PSoC5/LCD.c ****         
 445:.\Generated_Source\PSoC5/LCD.c ****         /* Mask off data pins to clear old values out */
 446:.\Generated_Source\PSoC5/LCD.c ****         value = LCD_PORT_PC_REG & ((uint32)(~ LCD_DM_DATA_MASK));
 447:.\Generated_Source\PSoC5/LCD.c ****         /* Load in high Z values for data pins, others unchanged */
 448:.\Generated_Source\PSoC5/LCD.c ****         LCD_PORT_PC_REG = value | LCD_STRONG_DATA_DM;
 449:.\Generated_Source\PSoC5/LCD.c **** 
 450:.\Generated_Source\PSoC5/LCD.c ****     #else
 451:.\Generated_Source\PSoC5/LCD.c **** 
 452:.\Generated_Source\PSoC5/LCD.c ****         /* Change Port to Output (Strong) on data pins */
 453:.\Generated_Source\PSoC5/LCD.c ****         /* Mask off data pins to clear high z values out. Configure data pins 
 454:.\Generated_Source\PSoC5/LCD.c ****         * to Strong Drive, others unchanged.
 455:.\Generated_Source\PSoC5/LCD.c ****         */
 456:.\Generated_Source\PSoC5/LCD.c ****         LCD_PORT_DM0_REG &= ((uint8)(~LCD_DATA_MASK));
 457:.\Generated_Source\PSoC5/LCD.c ****         /* Mask off data pins to clear high z values out */
 458:.\Generated_Source\PSoC5/LCD.c ****         value = LCD_PORT_DM1_REG & ((uint8)(~LCD_DATA_MASK));
 459:.\Generated_Source\PSoC5/LCD.c ****         /* Configure data pins to Strong Drive, others unchanged */
 460:.\Generated_Source\PSoC5/LCD.c ****         LCD_PORT_DM1_REG = value | (LCD_STRONG_DM1 & LCD_DATA_MASK);
 461:.\Generated_Source\PSoC5/LCD.c **** 
 462:.\Generated_Source\PSoC5/LCD.c ****         /* Mask off data pins to clear high z values out */
 463:.\Generated_Source\PSoC5/LCD.c ****         value = LCD_PORT_DM2_REG & ((uint8)(~LCD_DATA_MASK));
 464:.\Generated_Source\PSoC5/LCD.c ****         /* Configure data pins to Strong Drive, others unchanged */
 465:.\Generated_Source\PSoC5/LCD.c ****         LCD_PORT_DM2_REG = value | (LCD_STRONG_DM2 & LCD_DATA_MASK);
 466:.\Generated_Source\PSoC5/LCD.c ****     
 467:.\Generated_Source\PSoC5/LCD.c ****     #endif /* CY_PSOC4 */
 468:.\Generated_Source\PSoC5/LCD.c **** }
 469:.\Generated_Source\PSoC5/LCD.c **** 
 470:.\Generated_Source\PSoC5/LCD.c **** 
 471:.\Generated_Source\PSoC5/LCD.c **** /*******************************************************************************
 472:.\Generated_Source\PSoC5/LCD.c **** *  Function Name: LCD_WrDatNib
 473:.\Generated_Source\PSoC5/LCD.c **** ********************************************************************************
 474:.\Generated_Source\PSoC5/LCD.c **** *
 475:.\Generated_Source\PSoC5/LCD.c **** * Summary:
 476:.\Generated_Source\PSoC5/LCD.c **** *  Writes a data nibble to the LCD module.
 477:.\Generated_Source\PSoC5/LCD.c **** *
 478:.\Generated_Source\PSoC5/LCD.c **** * Parameters:
 479:.\Generated_Source\PSoC5/LCD.c **** *  nibble:  Byte containing nibble in the least significant nibble to be
 480:.\Generated_Source\PSoC5/LCD.c **** *           written to the LCD module.
 481:.\Generated_Source\PSoC5/LCD.c **** *
 482:.\Generated_Source\PSoC5/LCD.c **** * Return:
 483:.\Generated_Source\PSoC5/LCD.c **** *  None.
 484:.\Generated_Source\PSoC5/LCD.c **** *
 485:.\Generated_Source\PSoC5/LCD.c **** *******************************************************************************/
 486:.\Generated_Source\PSoC5/LCD.c **** static void LCD_WrDatNib(uint8 nibble) 
 487:.\Generated_Source\PSoC5/LCD.c **** {
 488:.\Generated_Source\PSoC5/LCD.c ****     /* RS should be low to select data register */
ARM GAS  C:\Users\Eih3\AppData\Local\Temp\cc6gnJb2.s 			page 10


 489:.\Generated_Source\PSoC5/LCD.c ****     LCD_PORT_DR_REG |= LCD_RS;
 490:.\Generated_Source\PSoC5/LCD.c ****     /* Reset RW for write operation */
 491:.\Generated_Source\PSoC5/LCD.c ****     LCD_PORT_DR_REG &= ((uint8)(~LCD_RW));
 492:.\Generated_Source\PSoC5/LCD.c **** 
 493:.\Generated_Source\PSoC5/LCD.c ****     /* Guaranteed delay between Setting RS and RW and setting E bits */
 494:.\Generated_Source\PSoC5/LCD.c ****     CyDelayUs(0u);
 495:.\Generated_Source\PSoC5/LCD.c ****     
 496:.\Generated_Source\PSoC5/LCD.c ****     /* Clear data pins */
 497:.\Generated_Source\PSoC5/LCD.c ****     LCD_PORT_DR_REG &= ((uint8)(~LCD_DATA_MASK));
 498:.\Generated_Source\PSoC5/LCD.c **** 
 499:.\Generated_Source\PSoC5/LCD.c ****     /* Write data, bring E high */
 500:.\Generated_Source\PSoC5/LCD.c ****     #if(0u != LCD_PORT_SHIFT) /* MISRA forbids shift by 0 so need to handle that */
 501:.\Generated_Source\PSoC5/LCD.c ****         LCD_PORT_DR_REG |= 
 502:.\Generated_Source\PSoC5/LCD.c ****             (LCD_E | ((uint8)(((uint8) nibble) << LCD_PORT_SHIFT)));
 503:.\Generated_Source\PSoC5/LCD.c ****     #else
 504:.\Generated_Source\PSoC5/LCD.c ****         LCD_PORT_DR_REG |= (LCD_E | nibble);
 505:.\Generated_Source\PSoC5/LCD.c ****     #endif /* (0u != LCD_PORT_SHIFT) */
 506:.\Generated_Source\PSoC5/LCD.c **** 
 507:.\Generated_Source\PSoC5/LCD.c ****     /* Minimum of 230 ns delay */
 508:.\Generated_Source\PSoC5/LCD.c ****     CyDelayUs(1u);
 509:.\Generated_Source\PSoC5/LCD.c **** 
 510:.\Generated_Source\PSoC5/LCD.c ****     LCD_PORT_DR_REG &= ((uint8)(~LCD_E));
 511:.\Generated_Source\PSoC5/LCD.c **** }
 512:.\Generated_Source\PSoC5/LCD.c **** 
 513:.\Generated_Source\PSoC5/LCD.c **** 
 514:.\Generated_Source\PSoC5/LCD.c **** /*******************************************************************************
 515:.\Generated_Source\PSoC5/LCD.c **** *  Function Name: LCD_WrCntrlNib
 516:.\Generated_Source\PSoC5/LCD.c **** ********************************************************************************
 517:.\Generated_Source\PSoC5/LCD.c **** *
 518:.\Generated_Source\PSoC5/LCD.c **** * Summary:
 519:.\Generated_Source\PSoC5/LCD.c **** *  Writes a control nibble to the LCD module.
 520:.\Generated_Source\PSoC5/LCD.c **** *
 521:.\Generated_Source\PSoC5/LCD.c **** * Parameters:
 522:.\Generated_Source\PSoC5/LCD.c **** *  nibble: The byte containing a nibble in the four least significant bits.????
 523:.\Generated_Source\PSoC5/LCD.c **** *
 524:.\Generated_Source\PSoC5/LCD.c **** * Return:
 525:.\Generated_Source\PSoC5/LCD.c **** *  None.
 526:.\Generated_Source\PSoC5/LCD.c **** *
 527:.\Generated_Source\PSoC5/LCD.c **** *******************************************************************************/
 528:.\Generated_Source\PSoC5/LCD.c **** static void LCD_WrCntrlNib(uint8 nibble) 
 529:.\Generated_Source\PSoC5/LCD.c **** {
  26              		.loc 1 529 0
  27              		.cfi_startproc
  28              		@ args = 0, pretend = 0, frame = 0
  29              		@ frame_needed = 0, uses_anonymous_args = 0
  30              	.LVL0:
  31 0000 10B5     		push	{r4, lr}
  32              		.cfi_def_cfa_offset 8
  33              		.cfi_offset 4, -8
  34              		.cfi_offset 14, -4
 530:.\Generated_Source\PSoC5/LCD.c ****     /* RS and RW should be low to select instruction register and  write operation respectively */
 531:.\Generated_Source\PSoC5/LCD.c ****     LCD_PORT_DR_REG &= ((uint8)(~(LCD_RS | LCD_RW)));
  35              		.loc 1 531 0
  36 0002 0B4C     		ldr	r4, .L2
  37 0004 2378     		ldrb	r3, [r4]	@ zero_extendqisi2
  38 0006 03F09F03 		and	r3, r3, #159
  39 000a 2370     		strb	r3, [r4]
ARM GAS  C:\Users\Eih3\AppData\Local\Temp\cc6gnJb2.s 			page 11


 532:.\Generated_Source\PSoC5/LCD.c **** 
 533:.\Generated_Source\PSoC5/LCD.c ****     /* Two following lines of code will give 40ns delay */
 534:.\Generated_Source\PSoC5/LCD.c ****     /* Clear data pins */
 535:.\Generated_Source\PSoC5/LCD.c ****     LCD_PORT_DR_REG &= ((uint8)(~LCD_DATA_MASK));
  40              		.loc 1 535 0
  41 000c 2378     		ldrb	r3, [r4]	@ zero_extendqisi2
  42 000e 03F0F003 		and	r3, r3, #240
  43 0012 2370     		strb	r3, [r4]
 536:.\Generated_Source\PSoC5/LCD.c **** 
 537:.\Generated_Source\PSoC5/LCD.c ****     /* Write control data and set enable signal */
 538:.\Generated_Source\PSoC5/LCD.c ****     #if(0u != LCD_PORT_SHIFT) /* MISRA forbids shift by 0 so need to handle that */
 539:.\Generated_Source\PSoC5/LCD.c ****         LCD_PORT_DR_REG |= 
 540:.\Generated_Source\PSoC5/LCD.c ****             (LCD_E | ((uint8)(((uint8) nibble) << LCD_PORT_SHIFT)));
 541:.\Generated_Source\PSoC5/LCD.c ****     #else
 542:.\Generated_Source\PSoC5/LCD.c ****         LCD_PORT_DR_REG |= (LCD_E | nibble);
  44              		.loc 1 542 0
  45 0014 2378     		ldrb	r3, [r4]	@ zero_extendqisi2
  46 0016 43F01003 		orr	r3, r3, #16
  47 001a 1843     		orrs	r0, r0, r3
  48              	.LVL1:
  49 001c 2070     		strb	r0, [r4]
 543:.\Generated_Source\PSoC5/LCD.c ****     #endif /* (0u != LCD_PORT_SHIFT) */
 544:.\Generated_Source\PSoC5/LCD.c **** 
 545:.\Generated_Source\PSoC5/LCD.c ****     /* Minimum of 230 ns delay */
 546:.\Generated_Source\PSoC5/LCD.c ****     CyDelayUs(1u);
  50              		.loc 1 546 0
  51 001e 0120     		movs	r0, #1
  52 0020 FFF7FEFF 		bl	CyDelayUs
  53              	.LVL2:
 547:.\Generated_Source\PSoC5/LCD.c **** 
 548:.\Generated_Source\PSoC5/LCD.c ****     LCD_PORT_DR_REG &= ((uint8)(~LCD_E));
  54              		.loc 1 548 0
  55 0024 2378     		ldrb	r3, [r4]	@ zero_extendqisi2
  56 0026 03F0EF03 		and	r3, r3, #239
  57 002a 2370     		strb	r3, [r4]
  58 002c 10BD     		pop	{r4, pc}
  59              	.L3:
  60 002e 00BF     		.align	2
  61              	.L2:
  62 0030 20510040 		.word	1073762592
  63              		.cfi_endproc
  64              	.LFE11:
  65              		.size	LCD_WrCntrlNib, .-LCD_WrCntrlNib
  66              		.section	.text.LCD_WrDatNib,"ax",%progbits
  67              		.align	1
  68              		.thumb
  69              		.thumb_func
  70              		.type	LCD_WrDatNib, %function
  71              	LCD_WrDatNib:
  72              	.LFB10:
 487:.\Generated_Source\PSoC5/LCD.c **** {
  73              		.loc 1 487 0
  74              		.cfi_startproc
  75              		@ args = 0, pretend = 0, frame = 0
  76              		@ frame_needed = 0, uses_anonymous_args = 0
  77              	.LVL3:
  78 0000 38B5     		push	{r3, r4, r5, lr}
ARM GAS  C:\Users\Eih3\AppData\Local\Temp\cc6gnJb2.s 			page 12


  79              		.cfi_def_cfa_offset 16
  80              		.cfi_offset 3, -16
  81              		.cfi_offset 4, -12
  82              		.cfi_offset 5, -8
  83              		.cfi_offset 14, -4
 489:.\Generated_Source\PSoC5/LCD.c ****     LCD_PORT_DR_REG |= LCD_RS;
  84              		.loc 1 489 0
  85 0002 0F4C     		ldr	r4, .L5
 487:.\Generated_Source\PSoC5/LCD.c **** {
  86              		.loc 1 487 0
  87 0004 0546     		mov	r5, r0
 489:.\Generated_Source\PSoC5/LCD.c ****     LCD_PORT_DR_REG |= LCD_RS;
  88              		.loc 1 489 0
  89 0006 2378     		ldrb	r3, [r4]	@ zero_extendqisi2
 494:.\Generated_Source\PSoC5/LCD.c ****     CyDelayUs(0u);
  90              		.loc 1 494 0
  91 0008 0020     		movs	r0, #0
  92              	.LVL4:
 489:.\Generated_Source\PSoC5/LCD.c ****     LCD_PORT_DR_REG |= LCD_RS;
  93              		.loc 1 489 0
  94 000a 43F02003 		orr	r3, r3, #32
  95 000e 2370     		strb	r3, [r4]
 491:.\Generated_Source\PSoC5/LCD.c ****     LCD_PORT_DR_REG &= ((uint8)(~LCD_RW));
  96              		.loc 1 491 0
  97 0010 2378     		ldrb	r3, [r4]	@ zero_extendqisi2
  98 0012 03F0BF03 		and	r3, r3, #191
  99 0016 2370     		strb	r3, [r4]
 494:.\Generated_Source\PSoC5/LCD.c ****     CyDelayUs(0u);
 100              		.loc 1 494 0
 101 0018 FFF7FEFF 		bl	CyDelayUs
 102              	.LVL5:
 497:.\Generated_Source\PSoC5/LCD.c ****     LCD_PORT_DR_REG &= ((uint8)(~LCD_DATA_MASK));
 103              		.loc 1 497 0
 104 001c 2378     		ldrb	r3, [r4]	@ zero_extendqisi2
 508:.\Generated_Source\PSoC5/LCD.c ****     CyDelayUs(1u);
 105              		.loc 1 508 0
 106 001e 0120     		movs	r0, #1
 497:.\Generated_Source\PSoC5/LCD.c ****     LCD_PORT_DR_REG &= ((uint8)(~LCD_DATA_MASK));
 107              		.loc 1 497 0
 108 0020 03F0F003 		and	r3, r3, #240
 109 0024 2370     		strb	r3, [r4]
 504:.\Generated_Source\PSoC5/LCD.c ****         LCD_PORT_DR_REG |= (LCD_E | nibble);
 110              		.loc 1 504 0
 111 0026 2378     		ldrb	r3, [r4]	@ zero_extendqisi2
 112 0028 43F01003 		orr	r3, r3, #16
 113 002c 1D43     		orrs	r5, r5, r3
 114 002e 2570     		strb	r5, [r4]
 508:.\Generated_Source\PSoC5/LCD.c ****     CyDelayUs(1u);
 115              		.loc 1 508 0
 116 0030 FFF7FEFF 		bl	CyDelayUs
 117              	.LVL6:
 510:.\Generated_Source\PSoC5/LCD.c ****     LCD_PORT_DR_REG &= ((uint8)(~LCD_E));
 118              		.loc 1 510 0
 119 0034 2378     		ldrb	r3, [r4]	@ zero_extendqisi2
 120 0036 03F0EF03 		and	r3, r3, #239
 121 003a 2370     		strb	r3, [r4]
 122 003c 38BD     		pop	{r3, r4, r5, pc}
ARM GAS  C:\Users\Eih3\AppData\Local\Temp\cc6gnJb2.s 			page 13


 123              	.L6:
 124 003e 00BF     		.align	2
 125              	.L5:
 126 0040 20510040 		.word	1073762592
 127              		.cfi_endproc
 128              	.LFE10:
 129              		.size	LCD_WrDatNib, .-LCD_WrDatNib
 130              		.section	.text.LCD_IsReady,"ax",%progbits
 131              		.align	1
 132              		.global	LCD_IsReady
 133              		.thumb
 134              		.thumb_func
 135              		.type	LCD_IsReady, %function
 136              	LCD_IsReady:
 137              	.LFB9:
 349:.\Generated_Source\PSoC5/LCD.c **** {
 138              		.loc 1 349 0
 139              		.cfi_startproc
 140              		@ args = 0, pretend = 0, frame = 0
 141              		@ frame_needed = 0, uses_anonymous_args = 0
 142              	.LVL7:
 143 0000 2DE9F843 		push	{r3, r4, r5, r6, r7, r8, r9, lr}
 144              		.cfi_def_cfa_offset 32
 145              		.cfi_offset 3, -32
 146              		.cfi_offset 4, -28
 147              		.cfi_offset 5, -24
 148              		.cfi_offset 6, -20
 149              		.cfi_offset 7, -16
 150              		.cfi_offset 8, -12
 151              		.cfi_offset 9, -8
 152              		.cfi_offset 14, -4
 355:.\Generated_Source\PSoC5/LCD.c ****     LCD_PORT_DR_REG &= ((uint8)(~LCD_PORT_MASK));
 153              		.loc 1 355 0
 154 0004 354C     		ldr	r4, .L14
 372:.\Generated_Source\PSoC5/LCD.c ****         value = LCD_PORT_DM0_REG & ((uint8)(~LCD_DATA_MASK));
 155              		.loc 1 372 0
 156 0006 3649     		ldr	r1, .L14+4
 355:.\Generated_Source\PSoC5/LCD.c ****     LCD_PORT_DR_REG &= ((uint8)(~LCD_PORT_MASK));
 157              		.loc 1 355 0
 158 0008 2378     		ldrb	r3, [r4]	@ zero_extendqisi2
 377:.\Generated_Source\PSoC5/LCD.c ****         value = LCD_PORT_DM1_REG & ((uint8)(~LCD_DATA_MASK));
 159              		.loc 1 377 0
 160 000a 364A     		ldr	r2, .L14+8
 355:.\Generated_Source\PSoC5/LCD.c ****     LCD_PORT_DR_REG &= ((uint8)(~LCD_PORT_MASK));
 161              		.loc 1 355 0
 162 000c 03F08003 		and	r3, r3, #128
 163 0010 DBB2     		uxtb	r3, r3
 164 0012 2370     		strb	r3, [r4]
 372:.\Generated_Source\PSoC5/LCD.c ****         value = LCD_PORT_DM0_REG & ((uint8)(~LCD_DATA_MASK));
 165              		.loc 1 372 0
 166 0014 0B78     		ldrb	r3, [r1]	@ zero_extendqisi2
 167              	.LVL8:
 392:.\Generated_Source\PSoC5/LCD.c ****     LCD_PORT_DR_REG |= LCD_RW;
 168              		.loc 1 392 0
 169 0016 4FF4CA75 		mov	r5, #404
 372:.\Generated_Source\PSoC5/LCD.c ****         value = LCD_PORT_DM0_REG & ((uint8)(~LCD_DATA_MASK));
 170              		.loc 1 372 0
ARM GAS  C:\Users\Eih3\AppData\Local\Temp\cc6gnJb2.s 			page 14


 171 001a 03F0F003 		and	r3, r3, #240
 172              	.LVL9:
 374:.\Generated_Source\PSoC5/LCD.c ****         LCD_PORT_DM0_REG = value | (LCD_HIGH_Z_DM0 & LCD_DATA_MASK);
 173              		.loc 1 374 0
 174 001e 43F00F03 		orr	r3, r3, #15
 175 0022 0B70     		strb	r3, [r1]
 377:.\Generated_Source\PSoC5/LCD.c ****         value = LCD_PORT_DM1_REG & ((uint8)(~LCD_DATA_MASK));
 176              		.loc 1 377 0
 177 0024 1378     		ldrb	r3, [r2]	@ zero_extendqisi2
 178 0026 0E46     		mov	r6, r1
 179 0028 03F0F003 		and	r3, r3, #240
 180              	.LVL10:
 379:.\Generated_Source\PSoC5/LCD.c ****         LCD_PORT_DM1_REG = value;
 181              		.loc 1 379 0
 182 002c 1370     		strb	r3, [r2]
 382:.\Generated_Source\PSoC5/LCD.c ****         value = LCD_PORT_DM2_REG & ((uint8)(~LCD_DATA_MASK));
 183              		.loc 1 382 0
 184 002e 2E4B     		ldr	r3, .L14+12
 185              	.LVL11:
 186 0030 1746     		mov	r7, r2
 187 0032 1878     		ldrb	r0, [r3]	@ zero_extendqisi2
 188 0034 9846     		mov	r8, r3
 189 0036 00F0F000 		and	r0, r0, #240
 190              	.LVL12:
 384:.\Generated_Source\PSoC5/LCD.c ****         LCD_PORT_DM2_REG = value;
 191              		.loc 1 384 0
 192 003a 1870     		strb	r0, [r3]
 389:.\Generated_Source\PSoC5/LCD.c ****     LCD_PORT_DR_REG &= ((uint8)(~LCD_RS));
 193              		.loc 1 389 0
 194 003c 2078     		ldrb	r0, [r4]	@ zero_extendqisi2
 195              	.LVL13:
 196 003e 00F0DF00 		and	r0, r0, #223
 197 0042 2070     		strb	r0, [r4]
 392:.\Generated_Source\PSoC5/LCD.c ****     LCD_PORT_DR_REG |= LCD_RW;
 198              		.loc 1 392 0
 199 0044 2078     		ldrb	r0, [r4]	@ zero_extendqisi2
 200 0046 40F04000 		orr	r0, r0, #64
 201 004a 2070     		strb	r0, [r4]
 202              	.LVL14:
 203              	.L10:
 397:.\Generated_Source\PSoC5/LCD.c ****         CyDelayUs(0u);
 204              		.loc 1 397 0
 205 004c 0020     		movs	r0, #0
 206 004e FFF7FEFF 		bl	CyDelayUs
 207              	.LVL15:
 400:.\Generated_Source\PSoC5/LCD.c ****         LCD_PORT_DR_REG |= LCD_E;
 208              		.loc 1 400 0
 209 0052 2378     		ldrb	r3, [r4]	@ zero_extendqisi2
 403:.\Generated_Source\PSoC5/LCD.c ****         CyDelayUs(1u);
 210              		.loc 1 403 0
 211 0054 0120     		movs	r0, #1
 400:.\Generated_Source\PSoC5/LCD.c ****         LCD_PORT_DR_REG |= LCD_E;
 212              		.loc 1 400 0
 213 0056 43F01003 		orr	r3, r3, #16
 214 005a 2370     		strb	r3, [r4]
 403:.\Generated_Source\PSoC5/LCD.c ****         CyDelayUs(1u);
 215              		.loc 1 403 0
ARM GAS  C:\Users\Eih3\AppData\Local\Temp\cc6gnJb2.s 			page 15


 216 005c FFF7FEFF 		bl	CyDelayUs
 217              	.LVL16:
 406:.\Generated_Source\PSoC5/LCD.c ****         value = LCD_PORT_PS_REG;
 218              		.loc 1 406 0
 219 0060 224B     		ldr	r3, .L14+16
 412:.\Generated_Source\PSoC5/LCD.c ****         CyDelayUs(0u);
 220              		.loc 1 412 0
 221 0062 0020     		movs	r0, #0
 406:.\Generated_Source\PSoC5/LCD.c ****         value = LCD_PORT_PS_REG;
 222              		.loc 1 406 0
 223 0064 93F80090 		ldrb	r9, [r3]	@ zero_extendqisi2
 409:.\Generated_Source\PSoC5/LCD.c ****         LCD_PORT_DR_REG &= ((uint8)(~LCD_E));
 224              		.loc 1 409 0
 225 0068 2378     		ldrb	r3, [r4]	@ zero_extendqisi2
 406:.\Generated_Source\PSoC5/LCD.c ****         value = LCD_PORT_PS_REG;
 226              		.loc 1 406 0
 227 006a 5FFA89F9 		uxtb	r9, r9
 228              	.LVL17:
 409:.\Generated_Source\PSoC5/LCD.c ****         LCD_PORT_DR_REG &= ((uint8)(~LCD_E));
 229              		.loc 1 409 0
 230 006e 03F0EF03 		and	r3, r3, #239
 231 0072 2370     		strb	r3, [r4]
 412:.\Generated_Source\PSoC5/LCD.c ****         CyDelayUs(0u);
 232              		.loc 1 412 0
 233 0074 FFF7FEFF 		bl	CyDelayUs
 234              	.LVL18:
 418:.\Generated_Source\PSoC5/LCD.c ****         LCD_PORT_DR_REG |= LCD_E;
 235              		.loc 1 418 0
 236 0078 2378     		ldrb	r3, [r4]	@ zero_extendqisi2
 421:.\Generated_Source\PSoC5/LCD.c ****         CyDelayUs(1u);
 237              		.loc 1 421 0
 238 007a 0120     		movs	r0, #1
 418:.\Generated_Source\PSoC5/LCD.c ****         LCD_PORT_DR_REG |= LCD_E;
 239              		.loc 1 418 0
 240 007c 43F01003 		orr	r3, r3, #16
 241 0080 2370     		strb	r3, [r4]
 421:.\Generated_Source\PSoC5/LCD.c ****         CyDelayUs(1u);
 242              		.loc 1 421 0
 243 0082 FFF7FEFF 		bl	CyDelayUs
 244              	.LVL19:
 424:.\Generated_Source\PSoC5/LCD.c ****         LCD_PORT_DR_REG &= ((uint8)(~LCD_E));
 245              		.loc 1 424 0
 246 0086 2378     		ldrb	r3, [r4]	@ zero_extendqisi2
 427:.\Generated_Source\PSoC5/LCD.c ****         if (value == 0u)
 247              		.loc 1 427 0
 248 0088 19F0080F 		tst	r9, #8
 424:.\Generated_Source\PSoC5/LCD.c ****         LCD_PORT_DR_REG &= ((uint8)(~LCD_E));
 249              		.loc 1 424 0
 250 008c 03F0EF03 		and	r3, r3, #239
 251 0090 2370     		strb	r3, [r4]
 427:.\Generated_Source\PSoC5/LCD.c ****         if (value == 0u)
 252              		.loc 1 427 0
 253 0092 1FD1     		bne	.L8
 429:.\Generated_Source\PSoC5/LCD.c ****             CyDelayUs(10u);
 254              		.loc 1 429 0
 255 0094 0A20     		movs	r0, #10
 256 0096 FFF7FEFF 		bl	CyDelayUs
ARM GAS  C:\Users\Eih3\AppData\Local\Temp\cc6gnJb2.s 			page 16


 257              	.LVL20:
 258              	.L9:
 438:.\Generated_Source\PSoC5/LCD.c ****     LCD_PORT_DR_REG &= ((uint8)(~LCD_RW));
 259              		.loc 1 438 0
 260 009a 2378     		ldrb	r3, [r4]	@ zero_extendqisi2
 261 009c 03F0BF03 		and	r3, r3, #191
 262 00a0 2370     		strb	r3, [r4]
 441:.\Generated_Source\PSoC5/LCD.c ****     LCD_PORT_DR_REG &= ((uint8)(~LCD_PORT_MASK));
 263              		.loc 1 441 0
 264 00a2 2378     		ldrb	r3, [r4]	@ zero_extendqisi2
 265 00a4 03F08003 		and	r3, r3, #128
 266 00a8 DBB2     		uxtb	r3, r3
 267 00aa 2370     		strb	r3, [r4]
 456:.\Generated_Source\PSoC5/LCD.c ****         LCD_PORT_DM0_REG &= ((uint8)(~LCD_DATA_MASK));
 268              		.loc 1 456 0
 269 00ac 3378     		ldrb	r3, [r6]	@ zero_extendqisi2
 270 00ae 03F0F003 		and	r3, r3, #240
 271 00b2 3370     		strb	r3, [r6]
 458:.\Generated_Source\PSoC5/LCD.c ****         value = LCD_PORT_DM1_REG & ((uint8)(~LCD_DATA_MASK));
 272              		.loc 1 458 0
 273 00b4 3B78     		ldrb	r3, [r7]	@ zero_extendqisi2
 274              	.LVL21:
 275 00b6 03F0F003 		and	r3, r3, #240
 276              	.LVL22:
 460:.\Generated_Source\PSoC5/LCD.c ****         LCD_PORT_DM1_REG = value | (LCD_STRONG_DM1 & LCD_DATA_MASK);
 277              		.loc 1 460 0
 278 00ba 43F00F03 		orr	r3, r3, #15
 279 00be 3B70     		strb	r3, [r7]
 463:.\Generated_Source\PSoC5/LCD.c ****         value = LCD_PORT_DM2_REG & ((uint8)(~LCD_DATA_MASK));
 280              		.loc 1 463 0
 281 00c0 98F80030 		ldrb	r3, [r8]	@ zero_extendqisi2
 282              	.LVL23:
 283 00c4 03F0F003 		and	r3, r3, #240
 284              	.LVL24:
 465:.\Generated_Source\PSoC5/LCD.c ****         LCD_PORT_DM2_REG = value | (LCD_STRONG_DM2 & LCD_DATA_MASK);
 285              		.loc 1 465 0
 286 00c8 43F00F03 		orr	r3, r3, #15
 287 00cc 88F80030 		strb	r3, [r8]
 288 00d0 BDE8F883 		pop	{r3, r4, r5, r6, r7, r8, r9, pc}
 289              	.LVL25:
 290              	.L8:
 435:.\Generated_Source\PSoC5/LCD.c ****     } while ((value != 0u) && (timeout > 0u));
 291              		.loc 1 435 0
 292 00d4 013D     		subs	r5, r5, #1
 293              	.LVL26:
 294 00d6 B9D1     		bne	.L10
 295 00d8 DFE7     		b	.L9
 296              	.L15:
 297 00da 00BF     		.align	2
 298              	.L14:
 299 00dc 20510040 		.word	1073762592
 300 00e0 22510040 		.word	1073762594
 301 00e4 23510040 		.word	1073762595
 302 00e8 24510040 		.word	1073762596
 303 00ec 21510040 		.word	1073762593
 304              		.cfi_endproc
 305              	.LFE9:
ARM GAS  C:\Users\Eih3\AppData\Local\Temp\cc6gnJb2.s 			page 17


 306              		.size	LCD_IsReady, .-LCD_IsReady
 307              		.section	.text.LCD_WriteData,"ax",%progbits
 308              		.align	1
 309              		.global	LCD_WriteData
 310              		.thumb
 311              		.thumb_func
 312              		.type	LCD_WriteData, %function
 313              	LCD_WriteData:
 314              	.LFB7:
 285:.\Generated_Source\PSoC5/LCD.c **** {
 315              		.loc 1 285 0
 316              		.cfi_startproc
 317              		@ args = 0, pretend = 0, frame = 0
 318              		@ frame_needed = 0, uses_anonymous_args = 0
 319              	.LVL27:
 320 0000 10B5     		push	{r4, lr}
 321              		.cfi_def_cfa_offset 8
 322              		.cfi_offset 4, -8
 323              		.cfi_offset 14, -4
 285:.\Generated_Source\PSoC5/LCD.c **** {
 324              		.loc 1 285 0
 325 0002 0446     		mov	r4, r0
 288:.\Generated_Source\PSoC5/LCD.c ****     LCD_IsReady();
 326              		.loc 1 288 0
 327 0004 FFF7FEFF 		bl	LCD_IsReady
 328              	.LVL28:
 292:.\Generated_Source\PSoC5/LCD.c ****     LCD_WrDatNib(nibble);
 329              		.loc 1 292 0
 330 0008 2009     		lsrs	r0, r4, #4
 331 000a FFF7FEFF 		bl	LCD_WrDatNib
 332              	.LVL29:
 296:.\Generated_Source\PSoC5/LCD.c ****     LCD_WrDatNib(nibble);
 333              		.loc 1 296 0
 334 000e 04F00F00 		and	r0, r4, #15
 297:.\Generated_Source\PSoC5/LCD.c **** }
 335              		.loc 1 297 0
 336 0012 BDE81040 		pop	{r4, lr}
 337              	.LVL30:
 296:.\Generated_Source\PSoC5/LCD.c ****     LCD_WrDatNib(nibble);
 338              		.loc 1 296 0
 339 0016 FFF7FEBF 		b	LCD_WrDatNib
 340              	.LVL31:
 341              		.cfi_endproc
 342              	.LFE7:
 343              		.size	LCD_WriteData, .-LCD_WriteData
 344              		.section	.text.LCD_PrintString,"ax",%progbits
 345              		.align	1
 346              		.global	LCD_PrintString
 347              		.thumb
 348              		.thumb_func
 349              		.type	LCD_PrintString, %function
 350              	LCD_PrintString:
 351              	.LFB5:
 234:.\Generated_Source\PSoC5/LCD.c **** {
 352              		.loc 1 234 0
 353              		.cfi_startproc
 354              		@ args = 0, pretend = 0, frame = 0
ARM GAS  C:\Users\Eih3\AppData\Local\Temp\cc6gnJb2.s 			page 18


 355              		@ frame_needed = 0, uses_anonymous_args = 0
 356              	.LVL32:
 357 0000 38B5     		push	{r3, r4, r5, lr}
 358              		.cfi_def_cfa_offset 16
 359              		.cfi_offset 3, -16
 360              		.cfi_offset 4, -12
 361              		.cfi_offset 5, -8
 362              		.cfi_offset 14, -4
 234:.\Generated_Source\PSoC5/LCD.c **** {
 363              		.loc 1 234 0
 364 0002 0546     		mov	r5, r0
 236:.\Generated_Source\PSoC5/LCD.c ****     char8 current = *string;
 365              		.loc 1 236 0
 366 0004 0078     		ldrb	r0, [r0]	@ zero_extendqisi2
 367              	.LVL33:
 235:.\Generated_Source\PSoC5/LCD.c ****     uint8 indexU8 = 1u;
 368              		.loc 1 235 0
 369 0006 0124     		movs	r4, #1
 370              	.LVL34:
 371              	.L18:
 239:.\Generated_Source\PSoC5/LCD.c ****     while((char8) '\0' != current)
 372              		.loc 1 239 0 discriminator 1
 373 0008 28B1     		cbz	r0, .L20
 241:.\Generated_Source\PSoC5/LCD.c ****         LCD_WriteData((uint8)current);
 374              		.loc 1 241 0
 375 000a FFF7FEFF 		bl	LCD_WriteData
 376              	.LVL35:
 242:.\Generated_Source\PSoC5/LCD.c ****         current = string[indexU8];
 377              		.loc 1 242 0
 378 000e 285D     		ldrb	r0, [r5, r4]	@ zero_extendqisi2
 379              	.LVL36:
 243:.\Generated_Source\PSoC5/LCD.c ****         indexU8++;
 380              		.loc 1 243 0
 381 0010 0134     		adds	r4, r4, #1
 382              	.LVL37:
 383 0012 E4B2     		uxtb	r4, r4
 384              	.LVL38:
 385 0014 F8E7     		b	.L18
 386              	.L20:
 245:.\Generated_Source\PSoC5/LCD.c **** }
 387              		.loc 1 245 0
 388 0016 38BD     		pop	{r3, r4, r5, pc}
 389              		.cfi_endproc
 390              	.LFE5:
 391              		.size	LCD_PrintString, .-LCD_PrintString
 392              		.section	.text.LCD_PutChar,"ax",%progbits
 393              		.align	1
 394              		.global	LCD_PutChar
 395              		.thumb
 396              		.thumb_func
 397              		.type	LCD_PutChar, %function
 398              	LCD_PutChar:
 399              	.LFB6:
 265:.\Generated_Source\PSoC5/LCD.c **** {
 400              		.loc 1 265 0
 401              		.cfi_startproc
 402              		@ args = 0, pretend = 0, frame = 0
ARM GAS  C:\Users\Eih3\AppData\Local\Temp\cc6gnJb2.s 			page 19


 403              		@ frame_needed = 0, uses_anonymous_args = 0
 404              		@ link register save eliminated.
 405              	.LVL39:
 266:.\Generated_Source\PSoC5/LCD.c ****     LCD_WriteData((uint8)character);
 406              		.loc 1 266 0
 407 0000 FFF7FEBF 		b	LCD_WriteData
 408              	.LVL40:
 409              		.cfi_endproc
 410              	.LFE6:
 411              		.size	LCD_PutChar, .-LCD_PutChar
 412              		.section	.text.LCD_WriteControl,"ax",%progbits
 413              		.align	1
 414              		.global	LCD_WriteControl
 415              		.thumb
 416              		.thumb_func
 417              		.type	LCD_WriteControl, %function
 418              	LCD_WriteControl:
 419              	.LFB8:
 315:.\Generated_Source\PSoC5/LCD.c **** {
 420              		.loc 1 315 0
 421              		.cfi_startproc
 422              		@ args = 0, pretend = 0, frame = 0
 423              		@ frame_needed = 0, uses_anonymous_args = 0
 424              	.LVL41:
 425 0000 10B5     		push	{r4, lr}
 426              		.cfi_def_cfa_offset 8
 427              		.cfi_offset 4, -8
 428              		.cfi_offset 14, -4
 315:.\Generated_Source\PSoC5/LCD.c **** {
 429              		.loc 1 315 0
 430 0002 0446     		mov	r4, r0
 318:.\Generated_Source\PSoC5/LCD.c ****     LCD_IsReady();
 431              		.loc 1 318 0
 432 0004 FFF7FEFF 		bl	LCD_IsReady
 433              	.LVL42:
 323:.\Generated_Source\PSoC5/LCD.c ****     LCD_WrCntrlNib(nibble);
 434              		.loc 1 323 0
 435 0008 2009     		lsrs	r0, r4, #4
 436 000a FFF7FEFF 		bl	LCD_WrCntrlNib
 437              	.LVL43:
 327:.\Generated_Source\PSoC5/LCD.c ****     LCD_WrCntrlNib(nibble);
 438              		.loc 1 327 0
 439 000e 04F00F00 		and	r0, r4, #15
 328:.\Generated_Source\PSoC5/LCD.c **** }
 440              		.loc 1 328 0
 441 0012 BDE81040 		pop	{r4, lr}
 442              	.LVL44:
 327:.\Generated_Source\PSoC5/LCD.c ****     LCD_WrCntrlNib(nibble);
 443              		.loc 1 327 0
 444 0016 FFF7FEBF 		b	LCD_WrCntrlNib
 445              	.LVL45:
 446              		.cfi_endproc
 447              	.LFE8:
 448              		.size	LCD_WriteControl, .-LCD_WriteControl
 449              		.section	.text.LCD_Init,"ax",%progbits
 450              		.align	1
 451              		.global	LCD_Init
ARM GAS  C:\Users\Eih3\AppData\Local\Temp\cc6gnJb2.s 			page 20


 452              		.thumb
 453              		.thumb_func
 454              		.type	LCD_Init, %function
 455              	LCD_Init:
 456              	.LFB0:
  56:.\Generated_Source\PSoC5/LCD.c **** {
 457              		.loc 1 56 0
 458              		.cfi_startproc
 459              		@ args = 0, pretend = 0, frame = 0
 460              		@ frame_needed = 0, uses_anonymous_args = 0
 461 0000 08B5     		push	{r3, lr}
 462              		.cfi_def_cfa_offset 8
 463              		.cfi_offset 3, -8
 464              		.cfi_offset 14, -4
  58:.\Generated_Source\PSoC5/LCD.c ****     CyDelay(40u);                                                        /* Delay 40 ms */
 465              		.loc 1 58 0
 466 0002 2820     		movs	r0, #40
 467 0004 FFF7FEFF 		bl	CyDelay
 468              	.LVL46:
  59:.\Generated_Source\PSoC5/LCD.c ****     LCD_WrCntrlNib(LCD_DISPLAY_8_BIT_INIT);    /* Selects 8-bit mode */
 469              		.loc 1 59 0
 470 0008 0320     		movs	r0, #3
 471 000a FFF7FEFF 		bl	LCD_WrCntrlNib
 472              	.LVL47:
  60:.\Generated_Source\PSoC5/LCD.c ****     CyDelay(5u);                                                         /* Delay 5 ms */
 473              		.loc 1 60 0
 474 000e 0520     		movs	r0, #5
 475 0010 FFF7FEFF 		bl	CyDelay
 476              	.LVL48:
  61:.\Generated_Source\PSoC5/LCD.c ****     LCD_WrCntrlNib(LCD_DISPLAY_8_BIT_INIT);    /* Selects 8-bit mode */
 477              		.loc 1 61 0
 478 0014 0320     		movs	r0, #3
 479 0016 FFF7FEFF 		bl	LCD_WrCntrlNib
 480              	.LVL49:
  62:.\Generated_Source\PSoC5/LCD.c ****     CyDelay(15u);                                                        /* Delay 15 ms */
 481              		.loc 1 62 0
 482 001a 0F20     		movs	r0, #15
 483 001c FFF7FEFF 		bl	CyDelay
 484              	.LVL50:
  63:.\Generated_Source\PSoC5/LCD.c ****     LCD_WrCntrlNib(LCD_DISPLAY_8_BIT_INIT);    /* Selects 8-bit mode */
 485              		.loc 1 63 0
 486 0020 0320     		movs	r0, #3
 487 0022 FFF7FEFF 		bl	LCD_WrCntrlNib
 488              	.LVL51:
  64:.\Generated_Source\PSoC5/LCD.c ****     CyDelay(1u);                                                         /* Delay 1 ms */
 489              		.loc 1 64 0
 490 0026 0120     		movs	r0, #1
 491 0028 FFF7FEFF 		bl	CyDelay
 492              	.LVL52:
  65:.\Generated_Source\PSoC5/LCD.c ****     LCD_WrCntrlNib(LCD_DISPLAY_4_BIT_INIT);    /* Selects 4-bit mode */
 493              		.loc 1 65 0
 494 002c 0220     		movs	r0, #2
 495 002e FFF7FEFF 		bl	LCD_WrCntrlNib
 496              	.LVL53:
  66:.\Generated_Source\PSoC5/LCD.c ****     CyDelay(5u);                                                         /* Delay 5 ms */
 497              		.loc 1 66 0
 498 0032 0520     		movs	r0, #5
ARM GAS  C:\Users\Eih3\AppData\Local\Temp\cc6gnJb2.s 			page 21


 499 0034 FFF7FEFF 		bl	CyDelay
 500              	.LVL54:
  68:.\Generated_Source\PSoC5/LCD.c ****     LCD_WriteControl(LCD_CURSOR_AUTO_INCR_ON);    /* Incr Cursor After Writes */
 501              		.loc 1 68 0
 502 0038 0620     		movs	r0, #6
 503 003a FFF7FEFF 		bl	LCD_WriteControl
 504              	.LVL55:
  69:.\Generated_Source\PSoC5/LCD.c ****     LCD_WriteControl(LCD_DISPLAY_CURSOR_ON);      /* Turn Display, Cursor ON */
 505              		.loc 1 69 0
 506 003e 0E20     		movs	r0, #14
 507 0040 FFF7FEFF 		bl	LCD_WriteControl
 508              	.LVL56:
  70:.\Generated_Source\PSoC5/LCD.c ****     LCD_WriteControl(LCD_DISPLAY_2_LINES_5x10);   /* 2 Lines by 5x10 Characters */
 509              		.loc 1 70 0
 510 0044 2C20     		movs	r0, #44
 511 0046 FFF7FEFF 		bl	LCD_WriteControl
 512              	.LVL57:
  71:.\Generated_Source\PSoC5/LCD.c ****     LCD_WriteControl(LCD_DISPLAY_CURSOR_OFF);     /* Turn Display, Cursor OFF */
 513              		.loc 1 71 0
 514 004a 0820     		movs	r0, #8
 515 004c FFF7FEFF 		bl	LCD_WriteControl
 516              	.LVL58:
  72:.\Generated_Source\PSoC5/LCD.c ****     LCD_WriteControl(LCD_CLEAR_DISPLAY);          /* Clear LCD Screen */
 517              		.loc 1 72 0
 518 0050 0120     		movs	r0, #1
 519 0052 FFF7FEFF 		bl	LCD_WriteControl
 520              	.LVL59:
  73:.\Generated_Source\PSoC5/LCD.c ****     LCD_WriteControl(LCD_DISPLAY_ON_CURSOR_OFF);  /* Turn Display ON, Cursor OFF */
 521              		.loc 1 73 0
 522 0056 0C20     		movs	r0, #12
 523 0058 FFF7FEFF 		bl	LCD_WriteControl
 524              	.LVL60:
  74:.\Generated_Source\PSoC5/LCD.c ****     LCD_WriteControl(LCD_RESET_CURSOR_POSITION);  /* Set Cursor to 0,0 */
 525              		.loc 1 74 0
 526 005c 0320     		movs	r0, #3
 527 005e FFF7FEFF 		bl	LCD_WriteControl
 528              	.LVL61:
  80:.\Generated_Source\PSoC5/LCD.c **** }
 529              		.loc 1 80 0
 530 0062 BDE80840 		pop	{r3, lr}
  75:.\Generated_Source\PSoC5/LCD.c ****     CyDelay(5u);
 531              		.loc 1 75 0
 532 0066 0520     		movs	r0, #5
 533 0068 FFF7FEBF 		b	CyDelay
 534              	.LVL62:
 535              		.cfi_endproc
 536              	.LFE0:
 537              		.size	LCD_Init, .-LCD_Init
 538              		.section	.text.LCD_Enable,"ax",%progbits
 539              		.align	1
 540              		.global	LCD_Enable
 541              		.thumb
 542              		.thumb_func
 543              		.type	LCD_Enable, %function
 544              	LCD_Enable:
 545              	.LFB1:
 105:.\Generated_Source\PSoC5/LCD.c **** {
ARM GAS  C:\Users\Eih3\AppData\Local\Temp\cc6gnJb2.s 			page 22


 546              		.loc 1 105 0
 547              		.cfi_startproc
 548              		@ args = 0, pretend = 0, frame = 0
 549              		@ frame_needed = 0, uses_anonymous_args = 0
 550 0000 08B5     		push	{r3, lr}
 551              		.cfi_def_cfa_offset 8
 552              		.cfi_offset 3, -8
 553              		.cfi_offset 14, -4
 106:.\Generated_Source\PSoC5/LCD.c ****     LCD_DisplayOn();
 554              		.loc 1 106 0
 555 0002 0C20     		movs	r0, #12
 556 0004 FFF7FEFF 		bl	LCD_WriteControl
 557              	.LVL63:
 107:.\Generated_Source\PSoC5/LCD.c ****     LCD_enableState = 1u;
 558              		.loc 1 107 0
 559 0008 014B     		ldr	r3, .L25
 560 000a 0122     		movs	r2, #1
 561 000c 1A70     		strb	r2, [r3]
 562 000e 08BD     		pop	{r3, pc}
 563              	.L26:
 564              		.align	2
 565              	.L25:
 566 0010 00000000 		.word	.LANCHOR0
 567              		.cfi_endproc
 568              	.LFE1:
 569              		.size	LCD_Enable, .-LCD_Enable
 570              		.section	.text.LCD_Start,"ax",%progbits
 571              		.align	1
 572              		.global	LCD_Start
 573              		.thumb
 574              		.thumb_func
 575              		.type	LCD_Start, %function
 576              	LCD_Start:
 577              	.LFB2:
 138:.\Generated_Source\PSoC5/LCD.c **** {
 578              		.loc 1 138 0
 579              		.cfi_startproc
 580              		@ args = 0, pretend = 0, frame = 0
 581              		@ frame_needed = 0, uses_anonymous_args = 0
 582 0000 10B5     		push	{r4, lr}
 583              		.cfi_def_cfa_offset 8
 584              		.cfi_offset 4, -8
 585              		.cfi_offset 14, -4
 140:.\Generated_Source\PSoC5/LCD.c ****     if(LCD_initVar == 0u)
 586              		.loc 1 140 0
 587 0002 054C     		ldr	r4, .L29
 588 0004 6378     		ldrb	r3, [r4, #1]	@ zero_extendqisi2
 589 0006 1BB9     		cbnz	r3, .L28
 142:.\Generated_Source\PSoC5/LCD.c ****         LCD_Init();
 590              		.loc 1 142 0
 591 0008 FFF7FEFF 		bl	LCD_Init
 592              	.LVL64:
 143:.\Generated_Source\PSoC5/LCD.c ****         LCD_initVar = 1u;
 593              		.loc 1 143 0
 594 000c 0123     		movs	r3, #1
 595 000e 6370     		strb	r3, [r4, #1]
 596              	.L28:
ARM GAS  C:\Users\Eih3\AppData\Local\Temp\cc6gnJb2.s 			page 23


 148:.\Generated_Source\PSoC5/LCD.c **** }
 597              		.loc 1 148 0
 598 0010 BDE81040 		pop	{r4, lr}
 147:.\Generated_Source\PSoC5/LCD.c ****     LCD_Enable();
 599              		.loc 1 147 0
 600 0014 FFF7FEBF 		b	LCD_Enable
 601              	.LVL65:
 602              	.L30:
 603              		.align	2
 604              	.L29:
 605 0018 00000000 		.word	.LANCHOR0
 606              		.cfi_endproc
 607              	.LFE2:
 608              		.size	LCD_Start, .-LCD_Start
 609              		.section	.text.LCD_Stop,"ax",%progbits
 610              		.align	1
 611              		.global	LCD_Stop
 612              		.thumb
 613              		.thumb_func
 614              		.type	LCD_Stop, %function
 615              	LCD_Stop:
 616              	.LFB3:
 169:.\Generated_Source\PSoC5/LCD.c **** {
 617              		.loc 1 169 0
 618              		.cfi_startproc
 619              		@ args = 0, pretend = 0, frame = 0
 620              		@ frame_needed = 0, uses_anonymous_args = 0
 621 0000 08B5     		push	{r3, lr}
 622              		.cfi_def_cfa_offset 8
 623              		.cfi_offset 3, -8
 624              		.cfi_offset 14, -4
 171:.\Generated_Source\PSoC5/LCD.c ****     LCD_DisplayOff();
 625              		.loc 1 171 0
 626 0002 0820     		movs	r0, #8
 627 0004 FFF7FEFF 		bl	LCD_WriteControl
 628              	.LVL66:
 172:.\Generated_Source\PSoC5/LCD.c ****     LCD_enableState = 0u;
 629              		.loc 1 172 0
 630 0008 014B     		ldr	r3, .L32
 631 000a 0022     		movs	r2, #0
 632 000c 1A70     		strb	r2, [r3]
 633 000e 08BD     		pop	{r3, pc}
 634              	.L33:
 635              		.align	2
 636              	.L32:
 637 0010 00000000 		.word	.LANCHOR0
 638              		.cfi_endproc
 639              	.LFE3:
 640              		.size	LCD_Stop, .-LCD_Stop
 641              		.section	.text.LCD_Position,"ax",%progbits
 642              		.align	1
 643              		.global	LCD_Position
 644              		.thumb
 645              		.thumb_func
 646              		.type	LCD_Position, %function
 647              	LCD_Position:
 648              	.LFB4:
ARM GAS  C:\Users\Eih3\AppData\Local\Temp\cc6gnJb2.s 			page 24


 197:.\Generated_Source\PSoC5/LCD.c **** {
 649              		.loc 1 197 0
 650              		.cfi_startproc
 651              		@ args = 0, pretend = 0, frame = 0
 652              		@ frame_needed = 0, uses_anonymous_args = 0
 653              		@ link register save eliminated.
 654              	.LVL67:
 198:.\Generated_Source\PSoC5/LCD.c ****     switch (row)
 655              		.loc 1 198 0
 656 0000 0328     		cmp	r0, #3
 657 0002 11D8     		bhi	.L34
 658 0004 DFE800F0 		tbb	[pc, r0]
 659              	.L37:
 660 0008 02       		.byte	(.L36-.L37)/2
 661 0009 05       		.byte	(.L38-.L37)/2
 662 000a 08       		.byte	(.L39-.L37)/2
 663 000b 0B       		.byte	(.L40-.L37)/2
 664              		.p2align 1
 665              	.L36:
 201:.\Generated_Source\PSoC5/LCD.c ****             LCD_WriteControl(LCD_ROW_0_START + column);
 666              		.loc 1 201 0
 667 000c 81F08000 		eor	r0, r1, #128
 668              	.LVL68:
 669 0010 08E0     		b	.L41
 670              	.LVL69:
 671              	.L38:
 204:.\Generated_Source\PSoC5/LCD.c ****             LCD_WriteControl(LCD_ROW_1_START + column);
 672              		.loc 1 204 0
 673 0012 A1F14000 		sub	r0, r1, #64
 674              	.LVL70:
 675 0016 04E0     		b	.L42
 676              	.LVL71:
 677              	.L39:
 207:.\Generated_Source\PSoC5/LCD.c ****             LCD_WriteControl(LCD_ROW_2_START + column);
 678              		.loc 1 207 0
 679 0018 A1F16C00 		sub	r0, r1, #108
 680              	.LVL72:
 681 001c 01E0     		b	.L42
 682              	.LVL73:
 683              	.L40:
 210:.\Generated_Source\PSoC5/LCD.c ****             LCD_WriteControl(LCD_ROW_3_START + column);
 684              		.loc 1 210 0
 685 001e A1F12C00 		sub	r0, r1, #44
 686              	.LVL74:
 687              	.L42:
 688 0022 C0B2     		uxtb	r0, r0
 689              	.L41:
 690 0024 FFF7FEBF 		b	LCD_WriteControl
 691              	.LVL75:
 692              	.L34:
 693 0028 7047     		bx	lr
 694              		.cfi_endproc
 695              	.LFE4:
 696              		.size	LCD_Position, .-LCD_Position
 697              		.section	.text.LCD_PrintInt8,"ax",%progbits
 698              		.align	1
 699              		.global	LCD_PrintInt8
ARM GAS  C:\Users\Eih3\AppData\Local\Temp\cc6gnJb2.s 			page 25


 700              		.thumb
 701              		.thumb_func
 702              		.type	LCD_PrintInt8, %function
 703              	LCD_PrintInt8:
 704              	.LFB12:
 549:.\Generated_Source\PSoC5/LCD.c **** }
 550:.\Generated_Source\PSoC5/LCD.c **** 
 551:.\Generated_Source\PSoC5/LCD.c **** 
 552:.\Generated_Source\PSoC5/LCD.c **** #if(LCD_CONVERSION_ROUTINES == 1u)
 553:.\Generated_Source\PSoC5/LCD.c **** 
 554:.\Generated_Source\PSoC5/LCD.c ****     /*******************************************************************************
 555:.\Generated_Source\PSoC5/LCD.c ****     *  Function Name: LCD_PrintInt8
 556:.\Generated_Source\PSoC5/LCD.c ****     ********************************************************************************
 557:.\Generated_Source\PSoC5/LCD.c ****     *
 558:.\Generated_Source\PSoC5/LCD.c ****     * Summary:
 559:.\Generated_Source\PSoC5/LCD.c ****     *  Print a byte as two ASCII characters.
 560:.\Generated_Source\PSoC5/LCD.c ****     *
 561:.\Generated_Source\PSoC5/LCD.c ****     * Parameters:
 562:.\Generated_Source\PSoC5/LCD.c ****     *  value: The byte to be printed out as ASCII characters.
 563:.\Generated_Source\PSoC5/LCD.c ****     *
 564:.\Generated_Source\PSoC5/LCD.c ****     * Return:
 565:.\Generated_Source\PSoC5/LCD.c ****     *  None.
 566:.\Generated_Source\PSoC5/LCD.c ****     *
 567:.\Generated_Source\PSoC5/LCD.c ****     *******************************************************************************/
 568:.\Generated_Source\PSoC5/LCD.c ****     void LCD_PrintInt8(uint8 value) 
 569:.\Generated_Source\PSoC5/LCD.c ****     {
 705              		.loc 1 569 0
 706              		.cfi_startproc
 707              		@ args = 0, pretend = 0, frame = 0
 708              		@ frame_needed = 0, uses_anonymous_args = 0
 709              	.LVL76:
 710 0000 38B5     		push	{r3, r4, r5, lr}
 711              		.cfi_def_cfa_offset 16
 712              		.cfi_offset 3, -16
 713              		.cfi_offset 4, -12
 714              		.cfi_offset 5, -8
 715              		.cfi_offset 14, -4
 570:.\Generated_Source\PSoC5/LCD.c ****         static char8 const CYCODE LCD_hex[16u] = "0123456789ABCDEF";
 571:.\Generated_Source\PSoC5/LCD.c ****         
 572:.\Generated_Source\PSoC5/LCD.c ****         LCD_PutChar((char8) LCD_hex[value >> LCD_BYTE_UPPER_NIBBLE_SHIFT]);
 716              		.loc 1 572 0
 717 0002 064C     		ldr	r4, .L44
 718 0004 0309     		lsrs	r3, r0, #4
 569:.\Generated_Source\PSoC5/LCD.c ****     {
 719              		.loc 1 569 0
 720 0006 0546     		mov	r5, r0
 573:.\Generated_Source\PSoC5/LCD.c ****         LCD_PutChar((char8) LCD_hex[value & LCD_BYTE_LOWER_NIBBLE_MASK]);
 721              		.loc 1 573 0
 722 0008 05F00F05 		and	r5, r5, #15
 723              	.LBB6:
 724              	.LBB7:
 266:.\Generated_Source\PSoC5/LCD.c ****     LCD_WriteData((uint8)character);
 725              		.loc 1 266 0
 726 000c E05C     		ldrb	r0, [r4, r3]	@ zero_extendqisi2
 727              	.LVL77:
 728 000e FFF7FEFF 		bl	LCD_WriteData
 729              	.LVL78:
ARM GAS  C:\Users\Eih3\AppData\Local\Temp\cc6gnJb2.s 			page 26


 730              	.LBE7:
 731              	.LBE6:
 732              	.LBB8:
 733              	.LBB9:
 734 0012 605D     		ldrb	r0, [r4, r5]	@ zero_extendqisi2
 735              	.LBE9:
 736              	.LBE8:
 574:.\Generated_Source\PSoC5/LCD.c ****     }
 737              		.loc 1 574 0
 738 0014 BDE83840 		pop	{r3, r4, r5, lr}
 739              	.LBB11:
 740              	.LBB10:
 266:.\Generated_Source\PSoC5/LCD.c ****     LCD_WriteData((uint8)character);
 741              		.loc 1 266 0
 742 0018 FFF7FEBF 		b	LCD_WriteData
 743              	.LVL79:
 744              	.L45:
 745              		.align	2
 746              	.L44:
 747 001c 00000000 		.word	.LANCHOR1
 748              	.LBE10:
 749              	.LBE11:
 750              		.cfi_endproc
 751              	.LFE12:
 752              		.size	LCD_PrintInt8, .-LCD_PrintInt8
 753              		.section	.text.LCD_PrintInt16,"ax",%progbits
 754              		.align	1
 755              		.global	LCD_PrintInt16
 756              		.thumb
 757              		.thumb_func
 758              		.type	LCD_PrintInt16, %function
 759              	LCD_PrintInt16:
 760              	.LFB13:
 575:.\Generated_Source\PSoC5/LCD.c **** 
 576:.\Generated_Source\PSoC5/LCD.c **** 
 577:.\Generated_Source\PSoC5/LCD.c ****     /*******************************************************************************
 578:.\Generated_Source\PSoC5/LCD.c ****     *  Function Name: LCD_PrintInt16
 579:.\Generated_Source\PSoC5/LCD.c ****     ********************************************************************************
 580:.\Generated_Source\PSoC5/LCD.c ****     *
 581:.\Generated_Source\PSoC5/LCD.c ****     * Summary:
 582:.\Generated_Source\PSoC5/LCD.c ****     *  Print a uint16 as four ASCII characters.
 583:.\Generated_Source\PSoC5/LCD.c ****     *
 584:.\Generated_Source\PSoC5/LCD.c ****     * Parameters:
 585:.\Generated_Source\PSoC5/LCD.c ****     *  value: The uint16 to be printed out as ASCII characters.
 586:.\Generated_Source\PSoC5/LCD.c ****     *
 587:.\Generated_Source\PSoC5/LCD.c ****     * Return:
 588:.\Generated_Source\PSoC5/LCD.c ****     *  None.
 589:.\Generated_Source\PSoC5/LCD.c ****     *
 590:.\Generated_Source\PSoC5/LCD.c ****     *******************************************************************************/
 591:.\Generated_Source\PSoC5/LCD.c ****     void LCD_PrintInt16(uint16 value) 
 592:.\Generated_Source\PSoC5/LCD.c ****     {
 761              		.loc 1 592 0
 762              		.cfi_startproc
 763              		@ args = 0, pretend = 0, frame = 0
 764              		@ frame_needed = 0, uses_anonymous_args = 0
 765              	.LVL80:
 766 0000 10B5     		push	{r4, lr}
ARM GAS  C:\Users\Eih3\AppData\Local\Temp\cc6gnJb2.s 			page 27


 767              		.cfi_def_cfa_offset 8
 768              		.cfi_offset 4, -8
 769              		.cfi_offset 14, -4
 770              		.loc 1 592 0
 771 0002 0446     		mov	r4, r0
 593:.\Generated_Source\PSoC5/LCD.c ****         LCD_PrintInt8((uint8)(value >> LCD_U16_UPPER_BYTE_SHIFT));
 772              		.loc 1 593 0
 773 0004 000A     		lsrs	r0, r0, #8
 774              	.LVL81:
 775 0006 FFF7FEFF 		bl	LCD_PrintInt8
 776              	.LVL82:
 594:.\Generated_Source\PSoC5/LCD.c ****         LCD_PrintInt8((uint8)(value & LCD_U16_LOWER_BYTE_MASK));
 777              		.loc 1 594 0
 778 000a E0B2     		uxtb	r0, r4
 595:.\Generated_Source\PSoC5/LCD.c ****     }
 779              		.loc 1 595 0
 780 000c BDE81040 		pop	{r4, lr}
 594:.\Generated_Source\PSoC5/LCD.c ****         LCD_PrintInt8((uint8)(value & LCD_U16_LOWER_BYTE_MASK));
 781              		.loc 1 594 0
 782 0010 FFF7FEBF 		b	LCD_PrintInt8
 783              	.LVL83:
 784              		.cfi_endproc
 785              	.LFE13:
 786              		.size	LCD_PrintInt16, .-LCD_PrintInt16
 787              		.section	.text.LCD_PrintInt32,"ax",%progbits
 788              		.align	1
 789              		.global	LCD_PrintInt32
 790              		.thumb
 791              		.thumb_func
 792              		.type	LCD_PrintInt32, %function
 793              	LCD_PrintInt32:
 794              	.LFB14:
 596:.\Generated_Source\PSoC5/LCD.c **** 
 597:.\Generated_Source\PSoC5/LCD.c ****     
 598:.\Generated_Source\PSoC5/LCD.c ****     /*******************************************************************************
 599:.\Generated_Source\PSoC5/LCD.c ****     *  Function Name: LCD_PrintInt32
 600:.\Generated_Source\PSoC5/LCD.c ****     ********************************************************************************
 601:.\Generated_Source\PSoC5/LCD.c ****     *
 602:.\Generated_Source\PSoC5/LCD.c ****     * Summary:
 603:.\Generated_Source\PSoC5/LCD.c ****     *  Print a uint32 hexadecimal number as eight ASCII characters.
 604:.\Generated_Source\PSoC5/LCD.c ****     *
 605:.\Generated_Source\PSoC5/LCD.c ****     * Parameters:
 606:.\Generated_Source\PSoC5/LCD.c ****     *  value: The uint32 to be printed out as ASCII characters.
 607:.\Generated_Source\PSoC5/LCD.c ****     *
 608:.\Generated_Source\PSoC5/LCD.c ****     * Return:
 609:.\Generated_Source\PSoC5/LCD.c ****     *  None.
 610:.\Generated_Source\PSoC5/LCD.c ****     *
 611:.\Generated_Source\PSoC5/LCD.c ****     *******************************************************************************/
 612:.\Generated_Source\PSoC5/LCD.c ****     void LCD_PrintInt32(uint32 value) 
 613:.\Generated_Source\PSoC5/LCD.c ****     {
 795              		.loc 1 613 0
 796              		.cfi_startproc
 797              		@ args = 0, pretend = 0, frame = 0
 798              		@ frame_needed = 0, uses_anonymous_args = 0
 799              	.LVL84:
 800 0000 38B5     		push	{r3, r4, r5, lr}
 801              		.cfi_def_cfa_offset 16
ARM GAS  C:\Users\Eih3\AppData\Local\Temp\cc6gnJb2.s 			page 28


 802              		.cfi_offset 3, -16
 803              		.cfi_offset 4, -12
 804              		.cfi_offset 5, -8
 805              		.cfi_offset 14, -4
 806              		.loc 1 613 0
 807 0002 0546     		mov	r5, r0
 614:.\Generated_Source\PSoC5/LCD.c ****         uint8 shift = LCD_32_BIT_SHIFT;
 808              		.loc 1 614 0
 809 0004 2024     		movs	r4, #32
 810              	.LVL85:
 811              	.L49:
 615:.\Generated_Source\PSoC5/LCD.c ****         
 616:.\Generated_Source\PSoC5/LCD.c ****         while (shift != 0u)
 617:.\Generated_Source\PSoC5/LCD.c ****         {
 618:.\Generated_Source\PSoC5/LCD.c ****             /* "shift" var is to be subtracted by 8 prior shifting. This implements 
 619:.\Generated_Source\PSoC5/LCD.c ****             * shifting by 24, 16, 8 and 0u. 
 620:.\Generated_Source\PSoC5/LCD.c ****             */
 621:.\Generated_Source\PSoC5/LCD.c ****             shift -= LCD_8_BIT_SHIFT;
 812              		.loc 1 621 0
 813 0006 083C     		subs	r4, r4, #8
 814              	.LVL86:
 815 0008 E4B2     		uxtb	r4, r4
 816              	.LVL87:
 622:.\Generated_Source\PSoC5/LCD.c ****             
 623:.\Generated_Source\PSoC5/LCD.c ****             /* Print 8 bits of uint32 hex number */
 624:.\Generated_Source\PSoC5/LCD.c ****             LCD_PrintInt8((uint8) ((uint32) (value >> shift)));
 817              		.loc 1 624 0
 818 000a 25FA04F0 		lsr	r0, r5, r4
 819 000e C0B2     		uxtb	r0, r0
 820 0010 FFF7FEFF 		bl	LCD_PrintInt8
 821              	.LVL88:
 616:.\Generated_Source\PSoC5/LCD.c ****         while (shift != 0u)
 822              		.loc 1 616 0
 823 0014 002C     		cmp	r4, #0
 824 0016 F6D1     		bne	.L49
 625:.\Generated_Source\PSoC5/LCD.c ****         }
 626:.\Generated_Source\PSoC5/LCD.c ****     }
 825              		.loc 1 626 0
 826 0018 38BD     		pop	{r3, r4, r5, pc}
 827              		.cfi_endproc
 828              	.LFE14:
 829              		.size	LCD_PrintInt32, .-LCD_PrintInt32
 830              		.section	.text.LCD_PrintU32Number,"ax",%progbits
 831              		.align	1
 832              		.global	LCD_PrintU32Number
 833              		.thumb
 834              		.thumb_func
 835              		.type	LCD_PrintU32Number, %function
 836              	LCD_PrintU32Number:
 837              	.LFB15:
 627:.\Generated_Source\PSoC5/LCD.c ****     
 628:.\Generated_Source\PSoC5/LCD.c ****     
 629:.\Generated_Source\PSoC5/LCD.c ****     /*******************************************************************************
 630:.\Generated_Source\PSoC5/LCD.c ****     *  Function Name: LCD_PrintNumber
 631:.\Generated_Source\PSoC5/LCD.c ****     ********************************************************************************
 632:.\Generated_Source\PSoC5/LCD.c ****     *
 633:.\Generated_Source\PSoC5/LCD.c ****     * Summary:
ARM GAS  C:\Users\Eih3\AppData\Local\Temp\cc6gnJb2.s 			page 29


 634:.\Generated_Source\PSoC5/LCD.c ****     *  Print an uint16 value as a left-justified decimal value.
 635:.\Generated_Source\PSoC5/LCD.c ****     *
 636:.\Generated_Source\PSoC5/LCD.c ****     * Parameters:
 637:.\Generated_Source\PSoC5/LCD.c ****     *  value: A 16-bit value to be printed in ASCII characters as a decimal number
 638:.\Generated_Source\PSoC5/LCD.c ****     *
 639:.\Generated_Source\PSoC5/LCD.c ****     * Return:
 640:.\Generated_Source\PSoC5/LCD.c ****     *  None.
 641:.\Generated_Source\PSoC5/LCD.c ****     *
 642:.\Generated_Source\PSoC5/LCD.c ****     * Note:
 643:.\Generated_Source\PSoC5/LCD.c ****     *  This function is implemented as a macro.
 644:.\Generated_Source\PSoC5/LCD.c ****     *
 645:.\Generated_Source\PSoC5/LCD.c ****     *******************************************************************************/
 646:.\Generated_Source\PSoC5/LCD.c **** 
 647:.\Generated_Source\PSoC5/LCD.c ****     
 648:.\Generated_Source\PSoC5/LCD.c ****     /*******************************************************************************
 649:.\Generated_Source\PSoC5/LCD.c ****     *  Function Name: LCD_PrintU32Number
 650:.\Generated_Source\PSoC5/LCD.c ****     ********************************************************************************
 651:.\Generated_Source\PSoC5/LCD.c ****     *
 652:.\Generated_Source\PSoC5/LCD.c ****     * Summary:
 653:.\Generated_Source\PSoC5/LCD.c ****     *  Print an uint32 value as a left-justified decimal value.
 654:.\Generated_Source\PSoC5/LCD.c ****     *
 655:.\Generated_Source\PSoC5/LCD.c ****     * Parameters:
 656:.\Generated_Source\PSoC5/LCD.c ****     *  value: A 32-bit value to be printed in ASCII characters as a decimal number
 657:.\Generated_Source\PSoC5/LCD.c ****     *
 658:.\Generated_Source\PSoC5/LCD.c ****     * Return:
 659:.\Generated_Source\PSoC5/LCD.c ****     *  None.
 660:.\Generated_Source\PSoC5/LCD.c ****     *
 661:.\Generated_Source\PSoC5/LCD.c ****     *******************************************************************************/
 662:.\Generated_Source\PSoC5/LCD.c ****     void LCD_PrintU32Number(uint32 value) 
 663:.\Generated_Source\PSoC5/LCD.c ****     {
 838              		.loc 1 663 0
 839              		.cfi_startproc
 840              		@ args = 0, pretend = 0, frame = 16
 841              		@ frame_needed = 0, uses_anonymous_args = 0
 842              	.LVL89:
 843 0000 1FB5     		push	{r0, r1, r2, r3, r4, lr}
 844              		.cfi_def_cfa_offset 24
 845              		.cfi_offset 0, -24
 846              		.cfi_offset 1, -20
 847              		.cfi_offset 2, -16
 848              		.cfi_offset 3, -12
 849              		.cfi_offset 4, -8
 850              		.cfi_offset 14, -4
 664:.\Generated_Source\PSoC5/LCD.c ****         uint8 tmpDigit;
 665:.\Generated_Source\PSoC5/LCD.c ****         char8 number[LCD_NUMBER_OF_REMAINDERS_U32 + 1u];
 666:.\Generated_Source\PSoC5/LCD.c ****         uint8 digIndex = LCD_NUMBER_OF_REMAINDERS_U32;
 667:.\Generated_Source\PSoC5/LCD.c ****         
 668:.\Generated_Source\PSoC5/LCD.c ****         /* This API will output a decimal number as a string and that string will be 
 669:.\Generated_Source\PSoC5/LCD.c ****         * filled from end to start. Set Null termination character first.
 670:.\Generated_Source\PSoC5/LCD.c ****         */
 671:.\Generated_Source\PSoC5/LCD.c ****         number[digIndex] = (char8) '\0';
 851              		.loc 1 671 0
 852 0002 0023     		movs	r3, #0
 853 0004 8DF80E30 		strb	r3, [sp, #14]
 854              	.LVL90:
 672:.\Generated_Source\PSoC5/LCD.c ****         digIndex--;
 855              		.loc 1 672 0
ARM GAS  C:\Users\Eih3\AppData\Local\Temp\cc6gnJb2.s 			page 30


 856 0008 0923     		movs	r3, #9
 857              	.LVL91:
 858              	.L51:
 859 000a 0A22     		movs	r2, #10
 673:.\Generated_Source\PSoC5/LCD.c ****         
 674:.\Generated_Source\PSoC5/LCD.c ****         /* Load these in reverse order */
 675:.\Generated_Source\PSoC5/LCD.c ****         while(value >= LCD_TEN)
 676:.\Generated_Source\PSoC5/LCD.c ****         {
 677:.\Generated_Source\PSoC5/LCD.c ****             /* Extract decimal digit, indexed by 'digIndex', from 'value' and
 678:.\Generated_Source\PSoC5/LCD.c ****             * convert it to ASCII character.
 679:.\Generated_Source\PSoC5/LCD.c ****             */
 680:.\Generated_Source\PSoC5/LCD.c ****             tmpDigit = (uint8) (((uint8) (value % LCD_TEN)) + (uint8) LCD_ZERO_CHAR_ASCII);
 860              		.loc 1 680 0 discriminator 1
 861 000c B0FBF2F4 		udiv	r4, r0, r2
 862 0010 02FB1402 		mls	r2, r2, r4, r0
 863 0014 04A9     		add	r1, sp, #16
 864 0016 1944     		add	r1, r1, r3
 865 0018 3032     		adds	r2, r2, #48
 675:.\Generated_Source\PSoC5/LCD.c ****         while(value >= LCD_TEN)
 866              		.loc 1 675 0 discriminator 1
 867 001a 0928     		cmp	r0, #9
 681:.\Generated_Source\PSoC5/LCD.c ****             
 682:.\Generated_Source\PSoC5/LCD.c ****             /* Temporary variable 'tmpDigit' is used to avoid Violation of MISRA rule 
 683:.\Generated_Source\PSoC5/LCD.c ****             * #10.3.
 684:.\Generated_Source\PSoC5/LCD.c ****             */
 685:.\Generated_Source\PSoC5/LCD.c ****             number[digIndex] = (char8) tmpDigit;
 868              		.loc 1 685 0 discriminator 1
 869 001c 01F80C2C 		strb	r2, [r1, #-12]
 675:.\Generated_Source\PSoC5/LCD.c ****         while(value >= LCD_TEN)
 870              		.loc 1 675 0 discriminator 1
 871 0020 03D9     		bls	.L53
 686:.\Generated_Source\PSoC5/LCD.c ****             value /= LCD_TEN;
 687:.\Generated_Source\PSoC5/LCD.c ****             digIndex--;
 872              		.loc 1 687 0
 873 0022 013B     		subs	r3, r3, #1
 874              	.LVL92:
 686:.\Generated_Source\PSoC5/LCD.c ****             value /= LCD_TEN;
 875              		.loc 1 686 0
 876 0024 2046     		mov	r0, r4
 877              	.LVL93:
 878              		.loc 1 687 0
 879 0026 DBB2     		uxtb	r3, r3
 880              	.LVL94:
 881 0028 EFE7     		b	.L51
 882              	.L53:
 688:.\Generated_Source\PSoC5/LCD.c ****         }
 689:.\Generated_Source\PSoC5/LCD.c ****         
 690:.\Generated_Source\PSoC5/LCD.c ****         /* Extract last decimal digit 'digIndex', from the 'value' and convert it
 691:.\Generated_Source\PSoC5/LCD.c ****         * to ASCII character.
 692:.\Generated_Source\PSoC5/LCD.c ****         */
 693:.\Generated_Source\PSoC5/LCD.c ****         tmpDigit = (uint8) (((uint8)(value % LCD_TEN)) + (uint8) LCD_ZERO_CHAR_ASCII);
 694:.\Generated_Source\PSoC5/LCD.c ****         number[digIndex] = (char8) tmpDigit;
 695:.\Generated_Source\PSoC5/LCD.c **** 
 696:.\Generated_Source\PSoC5/LCD.c ****         /* Print out number */
 697:.\Generated_Source\PSoC5/LCD.c ****         LCD_PrintString(&number[digIndex]);
 883              		.loc 1 697 0
 884 002a 01A8     		add	r0, sp, #4
ARM GAS  C:\Users\Eih3\AppData\Local\Temp\cc6gnJb2.s 			page 31


 885              	.LVL95:
 886 002c 1844     		add	r0, r0, r3
 887 002e FFF7FEFF 		bl	LCD_PrintString
 888              	.LVL96:
 698:.\Generated_Source\PSoC5/LCD.c ****     }
 889              		.loc 1 698 0
 890 0032 04B0     		add	sp, sp, #16
 891              		@ sp needed
 892 0034 10BD     		pop	{r4, pc}
 893              		.cfi_endproc
 894              	.LFE15:
 895              		.size	LCD_PrintU32Number, .-LCD_PrintU32Number
 896              		.global	LCD_initVar
 897              		.global	LCD_enableState
 898              		.section	.rodata
 899              		.set	.LANCHOR1,. + 0
 900              		.type	LCD_hex.4904, %object
 901              		.size	LCD_hex.4904, 16
 902              	LCD_hex.4904:
 903 0000 30313233 		.ascii	"0123456789ABCDEF"
 903      34353637 
 903      38394142 
 903      43444546 
 904              		.bss
 905              		.set	.LANCHOR0,. + 0
 906              		.type	LCD_enableState, %object
 907              		.size	LCD_enableState, 1
 908              	LCD_enableState:
 909 0000 00       		.space	1
 910              		.type	LCD_initVar, %object
 911              		.size	LCD_initVar, 1
 912              	LCD_initVar:
 913 0001 00       		.space	1
 914              		.text
 915              	.Letext0:
 916              		.file 2 ".\\Generated_Source\\PSoC5\\cytypes.h"
 917              		.file 3 ".\\Generated_Source\\PSoC5\\CyLib.h"