ARM GAS  C:\Users\Eih3\AppData\Local\Temp\ccbwQvgd.s 			page 1


   1              		.syntax unified
   2              		.cpu cortex-m3
   3              		.fpu softvfp
   4              		.eabi_attribute 20, 1
   5              		.eabi_attribute 21, 1
   6              		.eabi_attribute 23, 3
   7              		.eabi_attribute 24, 1
   8              		.eabi_attribute 25, 1
   9              		.eabi_attribute 26, 1
  10              		.eabi_attribute 30, 4
  11              		.eabi_attribute 34, 1
  12              		.eabi_attribute 18, 4
  13              		.thumb
  14              		.file	"Rx_Int.c"
  15              		.text
  16              	.Ltext0:
  17              		.cfi_sections	.debug_frame
  18              		.section	.text.Rx_Int_Interrupt,"ax",%progbits
  19              		.align	1
  20              		.global	Rx_Int_Interrupt
  21              		.thumb
  22              		.thumb_func
  23              		.type	Rx_Int_Interrupt, %function
  24              	Rx_Int_Interrupt:
  25              	.LFB3:
  26              		.file 1 ".\\Generated_Source\\PSoC5\\Rx_Int.c"
   1:.\Generated_Source\PSoC5/Rx_Int.c **** /*******************************************************************************
   2:.\Generated_Source\PSoC5/Rx_Int.c **** * File Name: Rx_Int.c  
   3:.\Generated_Source\PSoC5/Rx_Int.c **** * Version 1.70
   4:.\Generated_Source\PSoC5/Rx_Int.c **** *
   5:.\Generated_Source\PSoC5/Rx_Int.c **** *  Description:
   6:.\Generated_Source\PSoC5/Rx_Int.c **** *   API for controlling the state of an interrupt.
   7:.\Generated_Source\PSoC5/Rx_Int.c **** *
   8:.\Generated_Source\PSoC5/Rx_Int.c **** *
   9:.\Generated_Source\PSoC5/Rx_Int.c **** *  Note:
  10:.\Generated_Source\PSoC5/Rx_Int.c **** *
  11:.\Generated_Source\PSoC5/Rx_Int.c **** ********************************************************************************
  12:.\Generated_Source\PSoC5/Rx_Int.c **** * Copyright 2008-2015, Cypress Semiconductor Corporation.  All rights reserved.
  13:.\Generated_Source\PSoC5/Rx_Int.c **** * You may use this file only in accordance with the license, terms, conditions, 
  14:.\Generated_Source\PSoC5/Rx_Int.c **** * disclaimers, and limitations in the end user license agreement accompanying 
  15:.\Generated_Source\PSoC5/Rx_Int.c **** * the software package with which this file was provided.
  16:.\Generated_Source\PSoC5/Rx_Int.c **** *******************************************************************************/
  17:.\Generated_Source\PSoC5/Rx_Int.c **** 
  18:.\Generated_Source\PSoC5/Rx_Int.c **** 
  19:.\Generated_Source\PSoC5/Rx_Int.c **** #include <cydevice_trm.h>
  20:.\Generated_Source\PSoC5/Rx_Int.c **** #include <CyLib.h>
  21:.\Generated_Source\PSoC5/Rx_Int.c **** #include <Rx_Int.h>
  22:.\Generated_Source\PSoC5/Rx_Int.c **** 
  23:.\Generated_Source\PSoC5/Rx_Int.c **** #if !defined(Rx_Int__REMOVED) /* Check for removal by optimization */
  24:.\Generated_Source\PSoC5/Rx_Int.c **** 
  25:.\Generated_Source\PSoC5/Rx_Int.c **** /*******************************************************************************
  26:.\Generated_Source\PSoC5/Rx_Int.c **** *  Place your includes, defines and code here 
  27:.\Generated_Source\PSoC5/Rx_Int.c **** ********************************************************************************/
  28:.\Generated_Source\PSoC5/Rx_Int.c **** /* `#START Rx_Int_intc` */
  29:.\Generated_Source\PSoC5/Rx_Int.c **** 
  30:.\Generated_Source\PSoC5/Rx_Int.c **** /* `#END` */
  31:.\Generated_Source\PSoC5/Rx_Int.c **** 
ARM GAS  C:\Users\Eih3\AppData\Local\Temp\ccbwQvgd.s 			page 2


  32:.\Generated_Source\PSoC5/Rx_Int.c **** #ifndef CYINT_IRQ_BASE
  33:.\Generated_Source\PSoC5/Rx_Int.c **** #define CYINT_IRQ_BASE      16
  34:.\Generated_Source\PSoC5/Rx_Int.c **** #endif /* CYINT_IRQ_BASE */
  35:.\Generated_Source\PSoC5/Rx_Int.c **** #ifndef CYINT_VECT_TABLE
  36:.\Generated_Source\PSoC5/Rx_Int.c **** #define CYINT_VECT_TABLE    ((cyisraddress **) CYREG_NVIC_VECT_OFFSET)
  37:.\Generated_Source\PSoC5/Rx_Int.c **** #endif /* CYINT_VECT_TABLE */
  38:.\Generated_Source\PSoC5/Rx_Int.c **** 
  39:.\Generated_Source\PSoC5/Rx_Int.c **** /* Declared in startup, used to set unused interrupts to. */
  40:.\Generated_Source\PSoC5/Rx_Int.c **** CY_ISR_PROTO(IntDefaultHandler);
  41:.\Generated_Source\PSoC5/Rx_Int.c **** 
  42:.\Generated_Source\PSoC5/Rx_Int.c **** 
  43:.\Generated_Source\PSoC5/Rx_Int.c **** /*******************************************************************************
  44:.\Generated_Source\PSoC5/Rx_Int.c **** * Function Name: Rx_Int_Start
  45:.\Generated_Source\PSoC5/Rx_Int.c **** ********************************************************************************
  46:.\Generated_Source\PSoC5/Rx_Int.c **** *
  47:.\Generated_Source\PSoC5/Rx_Int.c **** * Summary:
  48:.\Generated_Source\PSoC5/Rx_Int.c **** *  Set up the interrupt and enable it. This function disables the interrupt, 
  49:.\Generated_Source\PSoC5/Rx_Int.c **** *  sets the default interrupt vector, sets the priority from the value in the
  50:.\Generated_Source\PSoC5/Rx_Int.c **** *  Design Wide Resources Interrupt Editor, then enables the interrupt to the 
  51:.\Generated_Source\PSoC5/Rx_Int.c **** *  interrupt controller.
  52:.\Generated_Source\PSoC5/Rx_Int.c **** *
  53:.\Generated_Source\PSoC5/Rx_Int.c **** * Parameters:  
  54:.\Generated_Source\PSoC5/Rx_Int.c **** *   None
  55:.\Generated_Source\PSoC5/Rx_Int.c **** *
  56:.\Generated_Source\PSoC5/Rx_Int.c **** * Return:
  57:.\Generated_Source\PSoC5/Rx_Int.c **** *   None
  58:.\Generated_Source\PSoC5/Rx_Int.c **** *
  59:.\Generated_Source\PSoC5/Rx_Int.c **** *******************************************************************************/
  60:.\Generated_Source\PSoC5/Rx_Int.c **** void Rx_Int_Start(void)
  61:.\Generated_Source\PSoC5/Rx_Int.c **** {
  62:.\Generated_Source\PSoC5/Rx_Int.c ****     /* For all we know the interrupt is active. */
  63:.\Generated_Source\PSoC5/Rx_Int.c ****     Rx_Int_Disable();
  64:.\Generated_Source\PSoC5/Rx_Int.c **** 
  65:.\Generated_Source\PSoC5/Rx_Int.c ****     /* Set the ISR to point to the Rx_Int Interrupt. */
  66:.\Generated_Source\PSoC5/Rx_Int.c ****     Rx_Int_SetVector(&Rx_Int_Interrupt);
  67:.\Generated_Source\PSoC5/Rx_Int.c **** 
  68:.\Generated_Source\PSoC5/Rx_Int.c ****     /* Set the priority. */
  69:.\Generated_Source\PSoC5/Rx_Int.c ****     Rx_Int_SetPriority((uint8)Rx_Int_INTC_PRIOR_NUMBER);
  70:.\Generated_Source\PSoC5/Rx_Int.c **** 
  71:.\Generated_Source\PSoC5/Rx_Int.c ****     /* Enable it. */
  72:.\Generated_Source\PSoC5/Rx_Int.c ****     Rx_Int_Enable();
  73:.\Generated_Source\PSoC5/Rx_Int.c **** }
  74:.\Generated_Source\PSoC5/Rx_Int.c **** 
  75:.\Generated_Source\PSoC5/Rx_Int.c **** 
  76:.\Generated_Source\PSoC5/Rx_Int.c **** /*******************************************************************************
  77:.\Generated_Source\PSoC5/Rx_Int.c **** * Function Name: Rx_Int_StartEx
  78:.\Generated_Source\PSoC5/Rx_Int.c **** ********************************************************************************
  79:.\Generated_Source\PSoC5/Rx_Int.c **** *
  80:.\Generated_Source\PSoC5/Rx_Int.c **** * Summary:
  81:.\Generated_Source\PSoC5/Rx_Int.c **** *  Sets up the interrupt and enables it. This function disables the interrupt,
  82:.\Generated_Source\PSoC5/Rx_Int.c **** *  sets the interrupt vector based on the address passed in, sets the priority 
  83:.\Generated_Source\PSoC5/Rx_Int.c **** *  from the value in the Design Wide Resources Interrupt Editor, then enables 
  84:.\Generated_Source\PSoC5/Rx_Int.c **** *  the interrupt to the interrupt controller.
  85:.\Generated_Source\PSoC5/Rx_Int.c **** *  
  86:.\Generated_Source\PSoC5/Rx_Int.c **** *  When defining ISR functions, the CY_ISR and CY_ISR_PROTO macros should be 
  87:.\Generated_Source\PSoC5/Rx_Int.c **** *  used to provide consistent definition across compilers:
  88:.\Generated_Source\PSoC5/Rx_Int.c **** *  
ARM GAS  C:\Users\Eih3\AppData\Local\Temp\ccbwQvgd.s 			page 3


  89:.\Generated_Source\PSoC5/Rx_Int.c **** *  Function definition example:
  90:.\Generated_Source\PSoC5/Rx_Int.c **** *   CY_ISR(MyISR)
  91:.\Generated_Source\PSoC5/Rx_Int.c **** *   {
  92:.\Generated_Source\PSoC5/Rx_Int.c **** *   }
  93:.\Generated_Source\PSoC5/Rx_Int.c **** *   Function prototype example:
  94:.\Generated_Source\PSoC5/Rx_Int.c **** *   CY_ISR_PROTO(MyISR);
  95:.\Generated_Source\PSoC5/Rx_Int.c **** *
  96:.\Generated_Source\PSoC5/Rx_Int.c **** * Parameters:  
  97:.\Generated_Source\PSoC5/Rx_Int.c **** *   address: Address of the ISR to set in the interrupt vector table.
  98:.\Generated_Source\PSoC5/Rx_Int.c **** *
  99:.\Generated_Source\PSoC5/Rx_Int.c **** * Return:
 100:.\Generated_Source\PSoC5/Rx_Int.c **** *   None
 101:.\Generated_Source\PSoC5/Rx_Int.c **** *
 102:.\Generated_Source\PSoC5/Rx_Int.c **** *******************************************************************************/
 103:.\Generated_Source\PSoC5/Rx_Int.c **** void Rx_Int_StartEx(cyisraddress address)
 104:.\Generated_Source\PSoC5/Rx_Int.c **** {
 105:.\Generated_Source\PSoC5/Rx_Int.c ****     /* For all we know the interrupt is active. */
 106:.\Generated_Source\PSoC5/Rx_Int.c ****     Rx_Int_Disable();
 107:.\Generated_Source\PSoC5/Rx_Int.c **** 
 108:.\Generated_Source\PSoC5/Rx_Int.c ****     /* Set the ISR to point to the Rx_Int Interrupt. */
 109:.\Generated_Source\PSoC5/Rx_Int.c ****     Rx_Int_SetVector(address);
 110:.\Generated_Source\PSoC5/Rx_Int.c **** 
 111:.\Generated_Source\PSoC5/Rx_Int.c ****     /* Set the priority. */
 112:.\Generated_Source\PSoC5/Rx_Int.c ****     Rx_Int_SetPriority((uint8)Rx_Int_INTC_PRIOR_NUMBER);
 113:.\Generated_Source\PSoC5/Rx_Int.c **** 
 114:.\Generated_Source\PSoC5/Rx_Int.c ****     /* Enable it. */
 115:.\Generated_Source\PSoC5/Rx_Int.c ****     Rx_Int_Enable();
 116:.\Generated_Source\PSoC5/Rx_Int.c **** }
 117:.\Generated_Source\PSoC5/Rx_Int.c **** 
 118:.\Generated_Source\PSoC5/Rx_Int.c **** 
 119:.\Generated_Source\PSoC5/Rx_Int.c **** /*******************************************************************************
 120:.\Generated_Source\PSoC5/Rx_Int.c **** * Function Name: Rx_Int_Stop
 121:.\Generated_Source\PSoC5/Rx_Int.c **** ********************************************************************************
 122:.\Generated_Source\PSoC5/Rx_Int.c **** *
 123:.\Generated_Source\PSoC5/Rx_Int.c **** * Summary:
 124:.\Generated_Source\PSoC5/Rx_Int.c **** *   Disables and removes the interrupt.
 125:.\Generated_Source\PSoC5/Rx_Int.c **** *
 126:.\Generated_Source\PSoC5/Rx_Int.c **** * Parameters:  
 127:.\Generated_Source\PSoC5/Rx_Int.c **** *   None
 128:.\Generated_Source\PSoC5/Rx_Int.c **** *
 129:.\Generated_Source\PSoC5/Rx_Int.c **** * Return:
 130:.\Generated_Source\PSoC5/Rx_Int.c **** *   None
 131:.\Generated_Source\PSoC5/Rx_Int.c **** *
 132:.\Generated_Source\PSoC5/Rx_Int.c **** *******************************************************************************/
 133:.\Generated_Source\PSoC5/Rx_Int.c **** void Rx_Int_Stop(void)
 134:.\Generated_Source\PSoC5/Rx_Int.c **** {
 135:.\Generated_Source\PSoC5/Rx_Int.c ****     /* Disable this interrupt. */
 136:.\Generated_Source\PSoC5/Rx_Int.c ****     Rx_Int_Disable();
 137:.\Generated_Source\PSoC5/Rx_Int.c **** 
 138:.\Generated_Source\PSoC5/Rx_Int.c ****     /* Set the ISR to point to the passive one. */
 139:.\Generated_Source\PSoC5/Rx_Int.c ****     Rx_Int_SetVector(&IntDefaultHandler);
 140:.\Generated_Source\PSoC5/Rx_Int.c **** }
 141:.\Generated_Source\PSoC5/Rx_Int.c **** 
 142:.\Generated_Source\PSoC5/Rx_Int.c **** 
 143:.\Generated_Source\PSoC5/Rx_Int.c **** /*******************************************************************************
 144:.\Generated_Source\PSoC5/Rx_Int.c **** * Function Name: Rx_Int_Interrupt
 145:.\Generated_Source\PSoC5/Rx_Int.c **** ********************************************************************************
ARM GAS  C:\Users\Eih3\AppData\Local\Temp\ccbwQvgd.s 			page 4


 146:.\Generated_Source\PSoC5/Rx_Int.c **** *
 147:.\Generated_Source\PSoC5/Rx_Int.c **** * Summary:
 148:.\Generated_Source\PSoC5/Rx_Int.c **** *   The default Interrupt Service Routine for Rx_Int.
 149:.\Generated_Source\PSoC5/Rx_Int.c **** *
 150:.\Generated_Source\PSoC5/Rx_Int.c **** *   Add custom code between the coments to keep the next version of this file
 151:.\Generated_Source\PSoC5/Rx_Int.c **** *   from over writting your code.
 152:.\Generated_Source\PSoC5/Rx_Int.c **** *
 153:.\Generated_Source\PSoC5/Rx_Int.c **** * Parameters:  
 154:.\Generated_Source\PSoC5/Rx_Int.c **** *
 155:.\Generated_Source\PSoC5/Rx_Int.c **** * Return:
 156:.\Generated_Source\PSoC5/Rx_Int.c **** *   None
 157:.\Generated_Source\PSoC5/Rx_Int.c **** *
 158:.\Generated_Source\PSoC5/Rx_Int.c **** *******************************************************************************/
 159:.\Generated_Source\PSoC5/Rx_Int.c **** CY_ISR(Rx_Int_Interrupt)
 160:.\Generated_Source\PSoC5/Rx_Int.c **** {
  27              		.loc 1 160 0
  28              		.cfi_startproc
  29              		@ args = 0, pretend = 0, frame = 0
  30              		@ frame_needed = 0, uses_anonymous_args = 0
  31              		@ link register save eliminated.
  32 0000 7047     		bx	lr
  33              		.cfi_endproc
  34              	.LFE3:
  35              		.size	Rx_Int_Interrupt, .-Rx_Int_Interrupt
  36              		.section	.text.Rx_Int_Start,"ax",%progbits
  37              		.align	1
  38              		.global	Rx_Int_Start
  39              		.thumb
  40              		.thumb_func
  41              		.type	Rx_Int_Start, %function
  42              	Rx_Int_Start:
  43              	.LFB0:
  61:.\Generated_Source\PSoC5/Rx_Int.c **** {
  44              		.loc 1 61 0
  45              		.cfi_startproc
  46              		@ args = 0, pretend = 0, frame = 0
  47              		@ frame_needed = 0, uses_anonymous_args = 0
  48              		@ link register save eliminated.
  49              	.LBB22:
  50              	.LBB23:
 161:.\Generated_Source\PSoC5/Rx_Int.c ****     /*  Place your Interrupt code here. */
 162:.\Generated_Source\PSoC5/Rx_Int.c ****     /* `#START Rx_Int_Interrupt` */
 163:.\Generated_Source\PSoC5/Rx_Int.c **** 
 164:.\Generated_Source\PSoC5/Rx_Int.c ****     /* `#END` */
 165:.\Generated_Source\PSoC5/Rx_Int.c **** }
 166:.\Generated_Source\PSoC5/Rx_Int.c **** 
 167:.\Generated_Source\PSoC5/Rx_Int.c **** 
 168:.\Generated_Source\PSoC5/Rx_Int.c **** /*******************************************************************************
 169:.\Generated_Source\PSoC5/Rx_Int.c **** * Function Name: Rx_Int_SetVector
 170:.\Generated_Source\PSoC5/Rx_Int.c **** ********************************************************************************
 171:.\Generated_Source\PSoC5/Rx_Int.c **** *
 172:.\Generated_Source\PSoC5/Rx_Int.c **** * Summary:
 173:.\Generated_Source\PSoC5/Rx_Int.c **** *   Change the ISR vector for the Interrupt. Note calling Rx_Int_Start
 174:.\Generated_Source\PSoC5/Rx_Int.c **** *   will override any effect this method would have had. To set the vector 
 175:.\Generated_Source\PSoC5/Rx_Int.c **** *   before the component has been started use Rx_Int_StartEx instead.
 176:.\Generated_Source\PSoC5/Rx_Int.c **** * 
 177:.\Generated_Source\PSoC5/Rx_Int.c **** *   When defining ISR functions, the CY_ISR and CY_ISR_PROTO macros should be 
ARM GAS  C:\Users\Eih3\AppData\Local\Temp\ccbwQvgd.s 			page 5


 178:.\Generated_Source\PSoC5/Rx_Int.c **** *   used to provide consistent definition across compilers:
 179:.\Generated_Source\PSoC5/Rx_Int.c **** *
 180:.\Generated_Source\PSoC5/Rx_Int.c **** *   Function definition example:
 181:.\Generated_Source\PSoC5/Rx_Int.c **** *   CY_ISR(MyISR)
 182:.\Generated_Source\PSoC5/Rx_Int.c **** *   {
 183:.\Generated_Source\PSoC5/Rx_Int.c **** *   }
 184:.\Generated_Source\PSoC5/Rx_Int.c **** *
 185:.\Generated_Source\PSoC5/Rx_Int.c **** *   Function prototype example:
 186:.\Generated_Source\PSoC5/Rx_Int.c **** *     CY_ISR_PROTO(MyISR);
 187:.\Generated_Source\PSoC5/Rx_Int.c **** *
 188:.\Generated_Source\PSoC5/Rx_Int.c **** * Parameters:
 189:.\Generated_Source\PSoC5/Rx_Int.c **** *   address: Address of the ISR to set in the interrupt vector table.
 190:.\Generated_Source\PSoC5/Rx_Int.c **** *
 191:.\Generated_Source\PSoC5/Rx_Int.c **** * Return:
 192:.\Generated_Source\PSoC5/Rx_Int.c **** *   None
 193:.\Generated_Source\PSoC5/Rx_Int.c **** *
 194:.\Generated_Source\PSoC5/Rx_Int.c **** *******************************************************************************/
 195:.\Generated_Source\PSoC5/Rx_Int.c **** void Rx_Int_SetVector(cyisraddress address)
 196:.\Generated_Source\PSoC5/Rx_Int.c **** {
 197:.\Generated_Source\PSoC5/Rx_Int.c ****     cyisraddress * ramVectorTable;
 198:.\Generated_Source\PSoC5/Rx_Int.c **** 
 199:.\Generated_Source\PSoC5/Rx_Int.c ****     ramVectorTable = (cyisraddress *) *CYINT_VECT_TABLE;
 200:.\Generated_Source\PSoC5/Rx_Int.c **** 
 201:.\Generated_Source\PSoC5/Rx_Int.c ****     ramVectorTable[CYINT_IRQ_BASE + (uint32)Rx_Int__INTC_NUMBER] = address;
 202:.\Generated_Source\PSoC5/Rx_Int.c **** }
 203:.\Generated_Source\PSoC5/Rx_Int.c **** 
 204:.\Generated_Source\PSoC5/Rx_Int.c **** 
 205:.\Generated_Source\PSoC5/Rx_Int.c **** /*******************************************************************************
 206:.\Generated_Source\PSoC5/Rx_Int.c **** * Function Name: Rx_Int_GetVector
 207:.\Generated_Source\PSoC5/Rx_Int.c **** ********************************************************************************
 208:.\Generated_Source\PSoC5/Rx_Int.c **** *
 209:.\Generated_Source\PSoC5/Rx_Int.c **** * Summary:
 210:.\Generated_Source\PSoC5/Rx_Int.c **** *   Gets the "address" of the current ISR vector for the Interrupt.
 211:.\Generated_Source\PSoC5/Rx_Int.c **** *
 212:.\Generated_Source\PSoC5/Rx_Int.c **** * Parameters:
 213:.\Generated_Source\PSoC5/Rx_Int.c **** *   None
 214:.\Generated_Source\PSoC5/Rx_Int.c **** *
 215:.\Generated_Source\PSoC5/Rx_Int.c **** * Return:
 216:.\Generated_Source\PSoC5/Rx_Int.c **** *   Address of the ISR in the interrupt vector table.
 217:.\Generated_Source\PSoC5/Rx_Int.c **** *
 218:.\Generated_Source\PSoC5/Rx_Int.c **** *******************************************************************************/
 219:.\Generated_Source\PSoC5/Rx_Int.c **** cyisraddress Rx_Int_GetVector(void)
 220:.\Generated_Source\PSoC5/Rx_Int.c **** {
 221:.\Generated_Source\PSoC5/Rx_Int.c ****     cyisraddress * ramVectorTable;
 222:.\Generated_Source\PSoC5/Rx_Int.c **** 
 223:.\Generated_Source\PSoC5/Rx_Int.c ****     ramVectorTable = (cyisraddress *) *CYINT_VECT_TABLE;
 224:.\Generated_Source\PSoC5/Rx_Int.c **** 
 225:.\Generated_Source\PSoC5/Rx_Int.c ****     return ramVectorTable[CYINT_IRQ_BASE + (uint32)Rx_Int__INTC_NUMBER];
 226:.\Generated_Source\PSoC5/Rx_Int.c **** }
 227:.\Generated_Source\PSoC5/Rx_Int.c **** 
 228:.\Generated_Source\PSoC5/Rx_Int.c **** 
 229:.\Generated_Source\PSoC5/Rx_Int.c **** /*******************************************************************************
 230:.\Generated_Source\PSoC5/Rx_Int.c **** * Function Name: Rx_Int_SetPriority
 231:.\Generated_Source\PSoC5/Rx_Int.c **** ********************************************************************************
 232:.\Generated_Source\PSoC5/Rx_Int.c **** *
 233:.\Generated_Source\PSoC5/Rx_Int.c **** * Summary:
 234:.\Generated_Source\PSoC5/Rx_Int.c **** *   Sets the Priority of the Interrupt. 
ARM GAS  C:\Users\Eih3\AppData\Local\Temp\ccbwQvgd.s 			page 6


 235:.\Generated_Source\PSoC5/Rx_Int.c **** *
 236:.\Generated_Source\PSoC5/Rx_Int.c **** *   Note calling Rx_Int_Start or Rx_Int_StartEx will 
 237:.\Generated_Source\PSoC5/Rx_Int.c **** *   override any effect this API would have had. This API should only be called
 238:.\Generated_Source\PSoC5/Rx_Int.c **** *   after Rx_Int_Start or Rx_Int_StartEx has been called. 
 239:.\Generated_Source\PSoC5/Rx_Int.c **** *   To set the initial priority for the component, use the Design-Wide Resources
 240:.\Generated_Source\PSoC5/Rx_Int.c **** *   Interrupt Editor.
 241:.\Generated_Source\PSoC5/Rx_Int.c **** *
 242:.\Generated_Source\PSoC5/Rx_Int.c **** *   Note This API has no effect on Non-maskable interrupt NMI).
 243:.\Generated_Source\PSoC5/Rx_Int.c **** *
 244:.\Generated_Source\PSoC5/Rx_Int.c **** * Parameters:
 245:.\Generated_Source\PSoC5/Rx_Int.c **** *   priority: Priority of the interrupt, 0 being the highest priority
 246:.\Generated_Source\PSoC5/Rx_Int.c **** *             PSoC 3 and PSoC 5LP: Priority is from 0 to 7.
 247:.\Generated_Source\PSoC5/Rx_Int.c **** *             PSoC 4: Priority is from 0 to 3.
 248:.\Generated_Source\PSoC5/Rx_Int.c **** *
 249:.\Generated_Source\PSoC5/Rx_Int.c **** * Return:
 250:.\Generated_Source\PSoC5/Rx_Int.c **** *   None
 251:.\Generated_Source\PSoC5/Rx_Int.c **** *
 252:.\Generated_Source\PSoC5/Rx_Int.c **** *******************************************************************************/
 253:.\Generated_Source\PSoC5/Rx_Int.c **** void Rx_Int_SetPriority(uint8 priority)
 254:.\Generated_Source\PSoC5/Rx_Int.c **** {
 255:.\Generated_Source\PSoC5/Rx_Int.c ****     *Rx_Int_INTC_PRIOR = priority << 5;
 256:.\Generated_Source\PSoC5/Rx_Int.c **** }
 257:.\Generated_Source\PSoC5/Rx_Int.c **** 
 258:.\Generated_Source\PSoC5/Rx_Int.c **** 
 259:.\Generated_Source\PSoC5/Rx_Int.c **** /*******************************************************************************
 260:.\Generated_Source\PSoC5/Rx_Int.c **** * Function Name: Rx_Int_GetPriority
 261:.\Generated_Source\PSoC5/Rx_Int.c **** ********************************************************************************
 262:.\Generated_Source\PSoC5/Rx_Int.c **** *
 263:.\Generated_Source\PSoC5/Rx_Int.c **** * Summary:
 264:.\Generated_Source\PSoC5/Rx_Int.c **** *   Gets the Priority of the Interrupt.
 265:.\Generated_Source\PSoC5/Rx_Int.c **** *
 266:.\Generated_Source\PSoC5/Rx_Int.c **** * Parameters:
 267:.\Generated_Source\PSoC5/Rx_Int.c **** *   None
 268:.\Generated_Source\PSoC5/Rx_Int.c **** *
 269:.\Generated_Source\PSoC5/Rx_Int.c **** * Return:
 270:.\Generated_Source\PSoC5/Rx_Int.c **** *   Priority of the interrupt, 0 being the highest priority
 271:.\Generated_Source\PSoC5/Rx_Int.c **** *    PSoC 3 and PSoC 5LP: Priority is from 0 to 7.
 272:.\Generated_Source\PSoC5/Rx_Int.c **** *    PSoC 4: Priority is from 0 to 3.
 273:.\Generated_Source\PSoC5/Rx_Int.c **** *
 274:.\Generated_Source\PSoC5/Rx_Int.c **** *******************************************************************************/
 275:.\Generated_Source\PSoC5/Rx_Int.c **** uint8 Rx_Int_GetPriority(void)
 276:.\Generated_Source\PSoC5/Rx_Int.c **** {
 277:.\Generated_Source\PSoC5/Rx_Int.c ****     uint8 priority;
 278:.\Generated_Source\PSoC5/Rx_Int.c **** 
 279:.\Generated_Source\PSoC5/Rx_Int.c **** 
 280:.\Generated_Source\PSoC5/Rx_Int.c ****     priority = *Rx_Int_INTC_PRIOR >> 5;
 281:.\Generated_Source\PSoC5/Rx_Int.c **** 
 282:.\Generated_Source\PSoC5/Rx_Int.c ****     return priority;
 283:.\Generated_Source\PSoC5/Rx_Int.c **** }
 284:.\Generated_Source\PSoC5/Rx_Int.c **** 
 285:.\Generated_Source\PSoC5/Rx_Int.c **** 
 286:.\Generated_Source\PSoC5/Rx_Int.c **** /*******************************************************************************
 287:.\Generated_Source\PSoC5/Rx_Int.c **** * Function Name: Rx_Int_Enable
 288:.\Generated_Source\PSoC5/Rx_Int.c **** ********************************************************************************
 289:.\Generated_Source\PSoC5/Rx_Int.c **** *
 290:.\Generated_Source\PSoC5/Rx_Int.c **** * Summary:
 291:.\Generated_Source\PSoC5/Rx_Int.c **** *   Enables the interrupt to the interrupt controller. Do not call this function
ARM GAS  C:\Users\Eih3\AppData\Local\Temp\ccbwQvgd.s 			page 7


 292:.\Generated_Source\PSoC5/Rx_Int.c **** *   unless ISR_Start() has been called or the functionality of the ISR_Start() 
 293:.\Generated_Source\PSoC5/Rx_Int.c **** *   function, which sets the vector and the priority, has been called.
 294:.\Generated_Source\PSoC5/Rx_Int.c **** *
 295:.\Generated_Source\PSoC5/Rx_Int.c **** * Parameters:
 296:.\Generated_Source\PSoC5/Rx_Int.c **** *   None
 297:.\Generated_Source\PSoC5/Rx_Int.c **** *
 298:.\Generated_Source\PSoC5/Rx_Int.c **** * Return:
 299:.\Generated_Source\PSoC5/Rx_Int.c **** *   None
 300:.\Generated_Source\PSoC5/Rx_Int.c **** *
 301:.\Generated_Source\PSoC5/Rx_Int.c **** *******************************************************************************/
 302:.\Generated_Source\PSoC5/Rx_Int.c **** void Rx_Int_Enable(void)
 303:.\Generated_Source\PSoC5/Rx_Int.c **** {
 304:.\Generated_Source\PSoC5/Rx_Int.c ****     /* Enable the general interrupt. */
 305:.\Generated_Source\PSoC5/Rx_Int.c ****     *Rx_Int_INTC_SET_EN = Rx_Int__INTC_MASK;
 306:.\Generated_Source\PSoC5/Rx_Int.c **** }
 307:.\Generated_Source\PSoC5/Rx_Int.c **** 
 308:.\Generated_Source\PSoC5/Rx_Int.c **** 
 309:.\Generated_Source\PSoC5/Rx_Int.c **** /*******************************************************************************
 310:.\Generated_Source\PSoC5/Rx_Int.c **** * Function Name: Rx_Int_GetState
 311:.\Generated_Source\PSoC5/Rx_Int.c **** ********************************************************************************
 312:.\Generated_Source\PSoC5/Rx_Int.c **** *
 313:.\Generated_Source\PSoC5/Rx_Int.c **** * Summary:
 314:.\Generated_Source\PSoC5/Rx_Int.c **** *   Gets the state (enabled, disabled) of the Interrupt.
 315:.\Generated_Source\PSoC5/Rx_Int.c **** *
 316:.\Generated_Source\PSoC5/Rx_Int.c **** * Parameters:
 317:.\Generated_Source\PSoC5/Rx_Int.c **** *   None
 318:.\Generated_Source\PSoC5/Rx_Int.c **** *
 319:.\Generated_Source\PSoC5/Rx_Int.c **** * Return:
 320:.\Generated_Source\PSoC5/Rx_Int.c **** *   1 if enabled, 0 if disabled.
 321:.\Generated_Source\PSoC5/Rx_Int.c **** *
 322:.\Generated_Source\PSoC5/Rx_Int.c **** *******************************************************************************/
 323:.\Generated_Source\PSoC5/Rx_Int.c **** uint8 Rx_Int_GetState(void)
 324:.\Generated_Source\PSoC5/Rx_Int.c **** {
 325:.\Generated_Source\PSoC5/Rx_Int.c ****     /* Get the state of the general interrupt. */
 326:.\Generated_Source\PSoC5/Rx_Int.c ****     return ((*Rx_Int_INTC_SET_EN & (uint32)Rx_Int__INTC_MASK) != 0u) ? 1u:0u;
 327:.\Generated_Source\PSoC5/Rx_Int.c **** }
 328:.\Generated_Source\PSoC5/Rx_Int.c **** 
 329:.\Generated_Source\PSoC5/Rx_Int.c **** 
 330:.\Generated_Source\PSoC5/Rx_Int.c **** /*******************************************************************************
 331:.\Generated_Source\PSoC5/Rx_Int.c **** * Function Name: Rx_Int_Disable
 332:.\Generated_Source\PSoC5/Rx_Int.c **** ********************************************************************************
 333:.\Generated_Source\PSoC5/Rx_Int.c **** *
 334:.\Generated_Source\PSoC5/Rx_Int.c **** * Summary:
 335:.\Generated_Source\PSoC5/Rx_Int.c **** *   Disables the Interrupt in the interrupt controller.
 336:.\Generated_Source\PSoC5/Rx_Int.c **** *
 337:.\Generated_Source\PSoC5/Rx_Int.c **** * Parameters:
 338:.\Generated_Source\PSoC5/Rx_Int.c **** *   None
 339:.\Generated_Source\PSoC5/Rx_Int.c **** *
 340:.\Generated_Source\PSoC5/Rx_Int.c **** * Return:
 341:.\Generated_Source\PSoC5/Rx_Int.c **** *   None
 342:.\Generated_Source\PSoC5/Rx_Int.c **** *
 343:.\Generated_Source\PSoC5/Rx_Int.c **** *******************************************************************************/
 344:.\Generated_Source\PSoC5/Rx_Int.c **** void Rx_Int_Disable(void)
 345:.\Generated_Source\PSoC5/Rx_Int.c **** {
 346:.\Generated_Source\PSoC5/Rx_Int.c ****     /* Disable the general interrupt. */
 347:.\Generated_Source\PSoC5/Rx_Int.c ****     *Rx_Int_INTC_CLR_EN = Rx_Int__INTC_MASK;
  51              		.loc 1 347 0
ARM GAS  C:\Users\Eih3\AppData\Local\Temp\ccbwQvgd.s 			page 8


  52 0000 074A     		ldr	r2, .L3
  53 0002 0123     		movs	r3, #1
  54 0004 1360     		str	r3, [r2]
  55              	.LVL0:
  56              	.LBE23:
  57              	.LBE22:
  58              	.LBB24:
  59              	.LBB25:
 199:.\Generated_Source\PSoC5/Rx_Int.c ****     ramVectorTable = (cyisraddress *) *CYINT_VECT_TABLE;
  60              		.loc 1 199 0
  61 0006 02F68832 		addw	r2, r2, #2952
  62 000a 1268     		ldr	r2, [r2]
  63              	.LVL1:
 201:.\Generated_Source\PSoC5/Rx_Int.c ****     ramVectorTable[CYINT_IRQ_BASE + (uint32)Rx_Int__INTC_NUMBER] = address;
  64              		.loc 1 201 0
  65 000c 0549     		ldr	r1, .L3+4
  66 000e 1164     		str	r1, [r2, #64]
  67              	.LVL2:
  68              	.LBE25:
  69              	.LBE24:
  70              	.LBB26:
  71              	.LBB27:
 255:.\Generated_Source\PSoC5/Rx_Int.c ****     *Rx_Int_INTC_PRIOR = priority << 5;
  72              		.loc 1 255 0
  73 0010 054A     		ldr	r2, .L3+8
  74              	.LVL3:
  75 0012 E021     		movs	r1, #224
  76 0014 1170     		strb	r1, [r2]
  77              	.LBE27:
  78              	.LBE26:
  79              	.LBB28:
  80              	.LBB29:
 305:.\Generated_Source\PSoC5/Rx_Int.c ****     *Rx_Int_INTC_SET_EN = Rx_Int__INTC_MASK;
  81              		.loc 1 305 0
  82 0016 A2F54072 		sub	r2, r2, #768
  83 001a 1360     		str	r3, [r2]
  84 001c 7047     		bx	lr
  85              	.L4:
  86 001e 00BF     		.align	2
  87              	.L3:
  88 0020 80E100E0 		.word	-536813184
  89 0024 00000000 		.word	Rx_Int_Interrupt
  90 0028 00E400E0 		.word	-536812544
  91              	.LBE29:
  92              	.LBE28:
  93              		.cfi_endproc
  94              	.LFE0:
  95              		.size	Rx_Int_Start, .-Rx_Int_Start
  96              		.section	.text.Rx_Int_StartEx,"ax",%progbits
  97              		.align	1
  98              		.global	Rx_Int_StartEx
  99              		.thumb
 100              		.thumb_func
 101              		.type	Rx_Int_StartEx, %function
 102              	Rx_Int_StartEx:
 103              	.LFB1:
 104:.\Generated_Source\PSoC5/Rx_Int.c **** {
ARM GAS  C:\Users\Eih3\AppData\Local\Temp\ccbwQvgd.s 			page 9


 104              		.loc 1 104 0
 105              		.cfi_startproc
 106              		@ args = 0, pretend = 0, frame = 0
 107              		@ frame_needed = 0, uses_anonymous_args = 0
 108              		@ link register save eliminated.
 109              	.LVL4:
 110              	.LBB30:
 111              	.LBB31:
 112              		.loc 1 347 0
 113 0000 064A     		ldr	r2, .L6
 114 0002 0123     		movs	r3, #1
 115 0004 1360     		str	r3, [r2]
 116              	.LVL5:
 117              	.LBE31:
 118              	.LBE30:
 119              	.LBB32:
 120              	.LBB33:
 199:.\Generated_Source\PSoC5/Rx_Int.c ****     ramVectorTable = (cyisraddress *) *CYINT_VECT_TABLE;
 121              		.loc 1 199 0
 122 0006 02F68832 		addw	r2, r2, #2952
 123 000a 1268     		ldr	r2, [r2]
 124              	.LVL6:
 125              	.LBE33:
 126              	.LBE32:
 127              	.LBB35:
 128              	.LBB36:
 255:.\Generated_Source\PSoC5/Rx_Int.c ****     *Rx_Int_INTC_PRIOR = priority << 5;
 129              		.loc 1 255 0
 130 000c E021     		movs	r1, #224
 131              	.LBE36:
 132              	.LBE35:
 133              	.LBB38:
 134              	.LBB34:
 201:.\Generated_Source\PSoC5/Rx_Int.c ****     ramVectorTable[CYINT_IRQ_BASE + (uint32)Rx_Int__INTC_NUMBER] = address;
 135              		.loc 1 201 0
 136 000e 1064     		str	r0, [r2, #64]
 137              	.LVL7:
 138              	.LBE34:
 139              	.LBE38:
 140              	.LBB39:
 141              	.LBB37:
 255:.\Generated_Source\PSoC5/Rx_Int.c ****     *Rx_Int_INTC_PRIOR = priority << 5;
 142              		.loc 1 255 0
 143 0010 034A     		ldr	r2, .L6+4
 144              	.LVL8:
 145 0012 1170     		strb	r1, [r2]
 146              	.LBE37:
 147              	.LBE39:
 148              	.LBB40:
 149              	.LBB41:
 305:.\Generated_Source\PSoC5/Rx_Int.c ****     *Rx_Int_INTC_SET_EN = Rx_Int__INTC_MASK;
 150              		.loc 1 305 0
 151 0014 A2F54072 		sub	r2, r2, #768
 152 0018 1360     		str	r3, [r2]
 153 001a 7047     		bx	lr
 154              	.L7:
 155              		.align	2
ARM GAS  C:\Users\Eih3\AppData\Local\Temp\ccbwQvgd.s 			page 10


 156              	.L6:
 157 001c 80E100E0 		.word	-536813184
 158 0020 00E400E0 		.word	-536812544
 159              	.LBE41:
 160              	.LBE40:
 161              		.cfi_endproc
 162              	.LFE1:
 163              		.size	Rx_Int_StartEx, .-Rx_Int_StartEx
 164              		.section	.text.Rx_Int_Stop,"ax",%progbits
 165              		.align	1
 166              		.global	Rx_Int_Stop
 167              		.thumb
 168              		.thumb_func
 169              		.type	Rx_Int_Stop, %function
 170              	Rx_Int_Stop:
 171              	.LFB2:
 134:.\Generated_Source\PSoC5/Rx_Int.c **** {
 172              		.loc 1 134 0
 173              		.cfi_startproc
 174              		@ args = 0, pretend = 0, frame = 0
 175              		@ frame_needed = 0, uses_anonymous_args = 0
 176              		@ link register save eliminated.
 177              	.LBB42:
 178              	.LBB43:
 179              		.loc 1 347 0
 180 0000 044B     		ldr	r3, .L9
 181 0002 0122     		movs	r2, #1
 182 0004 1A60     		str	r2, [r3]
 183              	.LVL9:
 184              	.LBE43:
 185              	.LBE42:
 186              	.LBB44:
 187              	.LBB45:
 199:.\Generated_Source\PSoC5/Rx_Int.c ****     ramVectorTable = (cyisraddress *) *CYINT_VECT_TABLE;
 188              		.loc 1 199 0
 189 0006 03F68833 		addw	r3, r3, #2952
 190 000a 1B68     		ldr	r3, [r3]
 191              	.LVL10:
 201:.\Generated_Source\PSoC5/Rx_Int.c ****     ramVectorTable[CYINT_IRQ_BASE + (uint32)Rx_Int__INTC_NUMBER] = address;
 192              		.loc 1 201 0
 193 000c 024A     		ldr	r2, .L9+4
 194 000e 1A64     		str	r2, [r3, #64]
 195 0010 7047     		bx	lr
 196              	.L10:
 197 0012 00BF     		.align	2
 198              	.L9:
 199 0014 80E100E0 		.word	-536813184
 200 0018 00000000 		.word	IntDefaultHandler
 201              	.LBE45:
 202              	.LBE44:
 203              		.cfi_endproc
 204              	.LFE2:
 205              		.size	Rx_Int_Stop, .-Rx_Int_Stop
 206              		.section	.text.Rx_Int_SetVector,"ax",%progbits
 207              		.align	1
 208              		.global	Rx_Int_SetVector
 209              		.thumb
ARM GAS  C:\Users\Eih3\AppData\Local\Temp\ccbwQvgd.s 			page 11


 210              		.thumb_func
 211              		.type	Rx_Int_SetVector, %function
 212              	Rx_Int_SetVector:
 213              	.LFB4:
 196:.\Generated_Source\PSoC5/Rx_Int.c **** {
 214              		.loc 1 196 0
 215              		.cfi_startproc
 216              		@ args = 0, pretend = 0, frame = 0
 217              		@ frame_needed = 0, uses_anonymous_args = 0
 218              		@ link register save eliminated.
 219              	.LVL11:
 199:.\Generated_Source\PSoC5/Rx_Int.c ****     ramVectorTable = (cyisraddress *) *CYINT_VECT_TABLE;
 220              		.loc 1 199 0
 221 0000 014B     		ldr	r3, .L12
 222 0002 1B68     		ldr	r3, [r3]
 223              	.LVL12:
 201:.\Generated_Source\PSoC5/Rx_Int.c ****     ramVectorTable[CYINT_IRQ_BASE + (uint32)Rx_Int__INTC_NUMBER] = address;
 224              		.loc 1 201 0
 225 0004 1864     		str	r0, [r3, #64]
 226 0006 7047     		bx	lr
 227              	.L13:
 228              		.align	2
 229              	.L12:
 230 0008 08ED00E0 		.word	-536810232
 231              		.cfi_endproc
 232              	.LFE4:
 233              		.size	Rx_Int_SetVector, .-Rx_Int_SetVector
 234              		.section	.text.Rx_Int_GetVector,"ax",%progbits
 235              		.align	1
 236              		.global	Rx_Int_GetVector
 237              		.thumb
 238              		.thumb_func
 239              		.type	Rx_Int_GetVector, %function
 240              	Rx_Int_GetVector:
 241              	.LFB5:
 220:.\Generated_Source\PSoC5/Rx_Int.c **** {
 242              		.loc 1 220 0
 243              		.cfi_startproc
 244              		@ args = 0, pretend = 0, frame = 0
 245              		@ frame_needed = 0, uses_anonymous_args = 0
 246              		@ link register save eliminated.
 247              	.LVL13:
 223:.\Generated_Source\PSoC5/Rx_Int.c ****     ramVectorTable = (cyisraddress *) *CYINT_VECT_TABLE;
 248              		.loc 1 223 0
 249 0000 014B     		ldr	r3, .L15
 250              	.LVL14:
 225:.\Generated_Source\PSoC5/Rx_Int.c ****     return ramVectorTable[CYINT_IRQ_BASE + (uint32)Rx_Int__INTC_NUMBER];
 251              		.loc 1 225 0
 252 0002 1B68     		ldr	r3, [r3]
 253              	.LVL15:
 226:.\Generated_Source\PSoC5/Rx_Int.c **** }
 254              		.loc 1 226 0
 255 0004 186C     		ldr	r0, [r3, #64]
 256 0006 7047     		bx	lr
 257              	.L16:
 258              		.align	2
 259              	.L15:
ARM GAS  C:\Users\Eih3\AppData\Local\Temp\ccbwQvgd.s 			page 12


 260 0008 08ED00E0 		.word	-536810232
 261              		.cfi_endproc
 262              	.LFE5:
 263              		.size	Rx_Int_GetVector, .-Rx_Int_GetVector
 264              		.section	.text.Rx_Int_SetPriority,"ax",%progbits
 265              		.align	1
 266              		.global	Rx_Int_SetPriority
 267              		.thumb
 268              		.thumb_func
 269              		.type	Rx_Int_SetPriority, %function
 270              	Rx_Int_SetPriority:
 271              	.LFB6:
 254:.\Generated_Source\PSoC5/Rx_Int.c **** {
 272              		.loc 1 254 0
 273              		.cfi_startproc
 274              		@ args = 0, pretend = 0, frame = 0
 275              		@ frame_needed = 0, uses_anonymous_args = 0
 276              		@ link register save eliminated.
 277              	.LVL16:
 255:.\Generated_Source\PSoC5/Rx_Int.c ****     *Rx_Int_INTC_PRIOR = priority << 5;
 278              		.loc 1 255 0
 279 0000 4001     		lsls	r0, r0, #5
 280              	.LVL17:
 281 0002 024B     		ldr	r3, .L18
 282 0004 C0B2     		uxtb	r0, r0
 283 0006 1870     		strb	r0, [r3]
 284 0008 7047     		bx	lr
 285              	.L19:
 286 000a 00BF     		.align	2
 287              	.L18:
 288 000c 00E400E0 		.word	-536812544
 289              		.cfi_endproc
 290              	.LFE6:
 291              		.size	Rx_Int_SetPriority, .-Rx_Int_SetPriority
 292              		.section	.text.Rx_Int_GetPriority,"ax",%progbits
 293              		.align	1
 294              		.global	Rx_Int_GetPriority
 295              		.thumb
 296              		.thumb_func
 297              		.type	Rx_Int_GetPriority, %function
 298              	Rx_Int_GetPriority:
 299              	.LFB7:
 276:.\Generated_Source\PSoC5/Rx_Int.c **** {
 300              		.loc 1 276 0
 301              		.cfi_startproc
 302              		@ args = 0, pretend = 0, frame = 0
 303              		@ frame_needed = 0, uses_anonymous_args = 0
 304              		@ link register save eliminated.
 280:.\Generated_Source\PSoC5/Rx_Int.c ****     priority = *Rx_Int_INTC_PRIOR >> 5;
 305              		.loc 1 280 0
 306 0000 014B     		ldr	r3, .L21
 307 0002 1878     		ldrb	r0, [r3]	@ zero_extendqisi2
 308              	.LVL18:
 283:.\Generated_Source\PSoC5/Rx_Int.c **** }
 309              		.loc 1 283 0
 310 0004 4009     		lsrs	r0, r0, #5
 311              	.LVL19:
ARM GAS  C:\Users\Eih3\AppData\Local\Temp\ccbwQvgd.s 			page 13


 312 0006 7047     		bx	lr
 313              	.L22:
 314              		.align	2
 315              	.L21:
 316 0008 00E400E0 		.word	-536812544
 317              		.cfi_endproc
 318              	.LFE7:
 319              		.size	Rx_Int_GetPriority, .-Rx_Int_GetPriority
 320              		.section	.text.Rx_Int_Enable,"ax",%progbits
 321              		.align	1
 322              		.global	Rx_Int_Enable
 323              		.thumb
 324              		.thumb_func
 325              		.type	Rx_Int_Enable, %function
 326              	Rx_Int_Enable:
 327              	.LFB8:
 303:.\Generated_Source\PSoC5/Rx_Int.c **** {
 328              		.loc 1 303 0
 329              		.cfi_startproc
 330              		@ args = 0, pretend = 0, frame = 0
 331              		@ frame_needed = 0, uses_anonymous_args = 0
 332              		@ link register save eliminated.
 305:.\Generated_Source\PSoC5/Rx_Int.c ****     *Rx_Int_INTC_SET_EN = Rx_Int__INTC_MASK;
 333              		.loc 1 305 0
 334 0000 014B     		ldr	r3, .L24
 335 0002 0122     		movs	r2, #1
 336 0004 1A60     		str	r2, [r3]
 337 0006 7047     		bx	lr
 338              	.L25:
 339              		.align	2
 340              	.L24:
 341 0008 00E100E0 		.word	-536813312
 342              		.cfi_endproc
 343              	.LFE8:
 344              		.size	Rx_Int_Enable, .-Rx_Int_Enable
 345              		.section	.text.Rx_Int_GetState,"ax",%progbits
 346              		.align	1
 347              		.global	Rx_Int_GetState
 348              		.thumb
 349              		.thumb_func
 350              		.type	Rx_Int_GetState, %function
 351              	Rx_Int_GetState:
 352              	.LFB9:
 324:.\Generated_Source\PSoC5/Rx_Int.c **** {
 353              		.loc 1 324 0
 354              		.cfi_startproc
 355              		@ args = 0, pretend = 0, frame = 0
 356              		@ frame_needed = 0, uses_anonymous_args = 0
 357              		@ link register save eliminated.
 326:.\Generated_Source\PSoC5/Rx_Int.c ****     return ((*Rx_Int_INTC_SET_EN & (uint32)Rx_Int__INTC_MASK) != 0u) ? 1u:0u;
 358              		.loc 1 326 0
 359 0000 024B     		ldr	r3, .L27
 360 0002 1868     		ldr	r0, [r3]
 327:.\Generated_Source\PSoC5/Rx_Int.c **** }
 361              		.loc 1 327 0
 362 0004 00F00100 		and	r0, r0, #1
 363 0008 7047     		bx	lr
ARM GAS  C:\Users\Eih3\AppData\Local\Temp\ccbwQvgd.s 			page 14


 364              	.L28:
 365 000a 00BF     		.align	2
 366              	.L27:
 367 000c 00E100E0 		.word	-536813312
 368              		.cfi_endproc
 369              	.LFE9:
 370              		.size	Rx_Int_GetState, .-Rx_Int_GetState
 371              		.section	.text.Rx_Int_Disable,"ax",%progbits
 372              		.align	1
 373              		.global	Rx_Int_Disable
 374              		.thumb
 375              		.thumb_func
 376              		.type	Rx_Int_Disable, %function
 377              	Rx_Int_Disable:
 378              	.LFB10:
 345:.\Generated_Source\PSoC5/Rx_Int.c **** {
 379              		.loc 1 345 0
 380              		.cfi_startproc
 381              		@ args = 0, pretend = 0, frame = 0
 382              		@ frame_needed = 0, uses_anonymous_args = 0
 383              		@ link register save eliminated.
 384              		.loc 1 347 0
 385 0000 014B     		ldr	r3, .L30
 386 0002 0122     		movs	r2, #1
 387 0004 1A60     		str	r2, [r3]
 388 0006 7047     		bx	lr
 389              	.L31:
 390              		.align	2
 391              	.L30:
 392 0008 80E100E0 		.word	-536813184
 393              		.cfi_endproc
 394              	.LFE10:
 395              		.size	Rx_Int_Disable, .-Rx_Int_Disable
 396              		.section	.text.Rx_Int_SetPending,"ax",%progbits
 397              		.align	1
 398              		.global	Rx_Int_SetPending
 399              		.thumb
 400              		.thumb_func
 401              		.type	Rx_Int_SetPending, %function
 402              	Rx_Int_SetPending:
 403              	.LFB11:
 348:.\Generated_Source\PSoC5/Rx_Int.c **** }
 349:.\Generated_Source\PSoC5/Rx_Int.c **** 
 350:.\Generated_Source\PSoC5/Rx_Int.c **** 
 351:.\Generated_Source\PSoC5/Rx_Int.c **** /*******************************************************************************
 352:.\Generated_Source\PSoC5/Rx_Int.c **** * Function Name: Rx_Int_SetPending
 353:.\Generated_Source\PSoC5/Rx_Int.c **** ********************************************************************************
 354:.\Generated_Source\PSoC5/Rx_Int.c **** *
 355:.\Generated_Source\PSoC5/Rx_Int.c **** * Summary:
 356:.\Generated_Source\PSoC5/Rx_Int.c **** *   Causes the Interrupt to enter the pending state, a software method of
 357:.\Generated_Source\PSoC5/Rx_Int.c **** *   generating the interrupt.
 358:.\Generated_Source\PSoC5/Rx_Int.c **** *
 359:.\Generated_Source\PSoC5/Rx_Int.c **** * Parameters:
 360:.\Generated_Source\PSoC5/Rx_Int.c **** *   None
 361:.\Generated_Source\PSoC5/Rx_Int.c **** *
 362:.\Generated_Source\PSoC5/Rx_Int.c **** * Return:
 363:.\Generated_Source\PSoC5/Rx_Int.c **** *   None
ARM GAS  C:\Users\Eih3\AppData\Local\Temp\ccbwQvgd.s 			page 15


 364:.\Generated_Source\PSoC5/Rx_Int.c **** *
 365:.\Generated_Source\PSoC5/Rx_Int.c **** * Side Effects:
 366:.\Generated_Source\PSoC5/Rx_Int.c **** *   If interrupts are enabled and the interrupt is set up properly, the ISR is
 367:.\Generated_Source\PSoC5/Rx_Int.c **** *   entered (depending on the priority of this interrupt and other pending 
 368:.\Generated_Source\PSoC5/Rx_Int.c **** *   interrupts).
 369:.\Generated_Source\PSoC5/Rx_Int.c **** *
 370:.\Generated_Source\PSoC5/Rx_Int.c **** *******************************************************************************/
 371:.\Generated_Source\PSoC5/Rx_Int.c **** void Rx_Int_SetPending(void)
 372:.\Generated_Source\PSoC5/Rx_Int.c **** {
 404              		.loc 1 372 0
 405              		.cfi_startproc
 406              		@ args = 0, pretend = 0, frame = 0
 407              		@ frame_needed = 0, uses_anonymous_args = 0
 408              		@ link register save eliminated.
 373:.\Generated_Source\PSoC5/Rx_Int.c ****     *Rx_Int_INTC_SET_PD = Rx_Int__INTC_MASK;
 409              		.loc 1 373 0
 410 0000 014B     		ldr	r3, .L33
 411 0002 0122     		movs	r2, #1
 412 0004 1A60     		str	r2, [r3]
 413 0006 7047     		bx	lr
 414              	.L34:
 415              		.align	2
 416              	.L33:
 417 0008 00E200E0 		.word	-536813056
 418              		.cfi_endproc
 419              	.LFE11:
 420              		.size	Rx_Int_SetPending, .-Rx_Int_SetPending
 421              		.section	.text.Rx_Int_ClearPending,"ax",%progbits
 422              		.align	1
 423              		.global	Rx_Int_ClearPending
 424              		.thumb
 425              		.thumb_func
 426              		.type	Rx_Int_ClearPending, %function
 427              	Rx_Int_ClearPending:
 428              	.LFB12:
 374:.\Generated_Source\PSoC5/Rx_Int.c **** }
 375:.\Generated_Source\PSoC5/Rx_Int.c **** 
 376:.\Generated_Source\PSoC5/Rx_Int.c **** 
 377:.\Generated_Source\PSoC5/Rx_Int.c **** /*******************************************************************************
 378:.\Generated_Source\PSoC5/Rx_Int.c **** * Function Name: Rx_Int_ClearPending
 379:.\Generated_Source\PSoC5/Rx_Int.c **** ********************************************************************************
 380:.\Generated_Source\PSoC5/Rx_Int.c **** *
 381:.\Generated_Source\PSoC5/Rx_Int.c **** * Summary:
 382:.\Generated_Source\PSoC5/Rx_Int.c **** *   Clears a pending interrupt in the interrupt controller.
 383:.\Generated_Source\PSoC5/Rx_Int.c **** *
 384:.\Generated_Source\PSoC5/Rx_Int.c **** *   Note Some interrupt sources are clear-on-read and require the block 
 385:.\Generated_Source\PSoC5/Rx_Int.c **** *   interrupt/status register to be read/cleared with the appropriate block API 
 386:.\Generated_Source\PSoC5/Rx_Int.c **** *   (GPIO, UART, and so on). Otherwise the ISR will continue to remain in 
 387:.\Generated_Source\PSoC5/Rx_Int.c **** *   pending state even though the interrupt itself is cleared using this API.
 388:.\Generated_Source\PSoC5/Rx_Int.c **** *
 389:.\Generated_Source\PSoC5/Rx_Int.c **** * Parameters:
 390:.\Generated_Source\PSoC5/Rx_Int.c **** *   None
 391:.\Generated_Source\PSoC5/Rx_Int.c **** *
 392:.\Generated_Source\PSoC5/Rx_Int.c **** * Return:
 393:.\Generated_Source\PSoC5/Rx_Int.c **** *   None
 394:.\Generated_Source\PSoC5/Rx_Int.c **** *
 395:.\Generated_Source\PSoC5/Rx_Int.c **** *******************************************************************************/
ARM GAS  C:\Users\Eih3\AppData\Local\Temp\ccbwQvgd.s 			page 16


 396:.\Generated_Source\PSoC5/Rx_Int.c **** void Rx_Int_ClearPending(void)
 397:.\Generated_Source\PSoC5/Rx_Int.c **** {
 429              		.loc 1 397 0
 430              		.cfi_startproc
 431              		@ args = 0, pretend = 0, frame = 0
 432              		@ frame_needed = 0, uses_anonymous_args = 0
 433              		@ link register save eliminated.
 398:.\Generated_Source\PSoC5/Rx_Int.c ****     *Rx_Int_INTC_CLR_PD = Rx_Int__INTC_MASK;
 434              		.loc 1 398 0
 435 0000 014B     		ldr	r3, .L36
 436 0002 0122     		movs	r2, #1
 437 0004 1A60     		str	r2, [r3]
 438 0006 7047     		bx	lr
 439              	.L37:
 440              		.align	2
 441              	.L36:
 442 0008 80E200E0 		.word	-536812928
 443              		.cfi_endproc
 444              	.LFE12:
 445              		.size	Rx_Int_ClearPending, .-Rx_Int_ClearPending
 446              		.text
 447              	.Letext0:
 448              		.file 2 ".\\Generated_Source\\PSoC5/cytypes.h"