ARM GAS  C:\Users\Eih3\AppData\Local\Temp\ccQnBLli.s 			page 1


   1              		.syntax unified
   2              		.cpu cortex-m3
   3              		.fpu softvfp
   4              		.eabi_attribute 20, 1
   5              		.eabi_attribute 21, 1
   6              		.eabi_attribute 23, 3
   7              		.eabi_attribute 24, 1
   8              		.eabi_attribute 25, 1
   9              		.eabi_attribute 26, 1
  10              		.eabi_attribute 30, 4
  11              		.eabi_attribute 34, 1
  12              		.eabi_attribute 18, 4
  13              		.thumb
  14              		.file	"UART_PM.c"
  15              		.text
  16              	.Ltext0:
  17              		.cfi_sections	.debug_frame
  18              		.section	.text.UART_SaveConfig,"ax",%progbits
  19              		.align	1
  20              		.global	UART_SaveConfig
  21              		.thumb
  22              		.thumb_func
  23              		.type	UART_SaveConfig, %function
  24              	UART_SaveConfig:
  25              	.LFB0:
  26              		.file 1 ".\\Generated_Source\\PSoC5\\UART_PM.c"
   1:.\Generated_Source\PSoC5/UART_PM.c **** /*******************************************************************************
   2:.\Generated_Source\PSoC5/UART_PM.c **** * File Name: UART_PM.c
   3:.\Generated_Source\PSoC5/UART_PM.c **** * Version 2.40
   4:.\Generated_Source\PSoC5/UART_PM.c **** *
   5:.\Generated_Source\PSoC5/UART_PM.c **** * Description:
   6:.\Generated_Source\PSoC5/UART_PM.c **** *  This file provides Sleep/WakeUp APIs functionality.
   7:.\Generated_Source\PSoC5/UART_PM.c **** *
   8:.\Generated_Source\PSoC5/UART_PM.c **** * Note:
   9:.\Generated_Source\PSoC5/UART_PM.c **** *
  10:.\Generated_Source\PSoC5/UART_PM.c **** ********************************************************************************
  11:.\Generated_Source\PSoC5/UART_PM.c **** * Copyright 2008-2015, Cypress Semiconductor Corporation.  All rights reserved.
  12:.\Generated_Source\PSoC5/UART_PM.c **** * You may use this file only in accordance with the license, terms, conditions,
  13:.\Generated_Source\PSoC5/UART_PM.c **** * disclaimers, and limitations in the end user license agreement accompanying
  14:.\Generated_Source\PSoC5/UART_PM.c **** * the software package with which this file was provided.
  15:.\Generated_Source\PSoC5/UART_PM.c **** *******************************************************************************/
  16:.\Generated_Source\PSoC5/UART_PM.c **** 
  17:.\Generated_Source\PSoC5/UART_PM.c **** #include "UART.h"
  18:.\Generated_Source\PSoC5/UART_PM.c **** 
  19:.\Generated_Source\PSoC5/UART_PM.c **** 
  20:.\Generated_Source\PSoC5/UART_PM.c **** /***************************************
  21:.\Generated_Source\PSoC5/UART_PM.c **** * Local data allocation
  22:.\Generated_Source\PSoC5/UART_PM.c **** ***************************************/
  23:.\Generated_Source\PSoC5/UART_PM.c **** 
  24:.\Generated_Source\PSoC5/UART_PM.c **** static UART_BACKUP_STRUCT  UART_backup =
  25:.\Generated_Source\PSoC5/UART_PM.c **** {
  26:.\Generated_Source\PSoC5/UART_PM.c ****     /* enableState - disabled */
  27:.\Generated_Source\PSoC5/UART_PM.c ****     0u,
  28:.\Generated_Source\PSoC5/UART_PM.c **** };
  29:.\Generated_Source\PSoC5/UART_PM.c **** 
  30:.\Generated_Source\PSoC5/UART_PM.c **** 
  31:.\Generated_Source\PSoC5/UART_PM.c **** 
ARM GAS  C:\Users\Eih3\AppData\Local\Temp\ccQnBLli.s 			page 2


  32:.\Generated_Source\PSoC5/UART_PM.c **** /*******************************************************************************
  33:.\Generated_Source\PSoC5/UART_PM.c **** * Function Name: UART_SaveConfig
  34:.\Generated_Source\PSoC5/UART_PM.c **** ********************************************************************************
  35:.\Generated_Source\PSoC5/UART_PM.c **** *
  36:.\Generated_Source\PSoC5/UART_PM.c **** * Summary:
  37:.\Generated_Source\PSoC5/UART_PM.c **** *  This function saves the component configuration and nonretention registers.
  38:.\Generated_Source\PSoC5/UART_PM.c **** *  It also saves the current component parameter values, as defined in the
  39:.\Generated_Source\PSoC5/UART_PM.c **** *  Configure dialog or as modified by appropriate APIs. This function is called
  40:.\Generated_Source\PSoC5/UART_PM.c **** *  by the UART_Sleep() function.
  41:.\Generated_Source\PSoC5/UART_PM.c **** *
  42:.\Generated_Source\PSoC5/UART_PM.c **** * Parameters:
  43:.\Generated_Source\PSoC5/UART_PM.c **** *  None.
  44:.\Generated_Source\PSoC5/UART_PM.c **** *
  45:.\Generated_Source\PSoC5/UART_PM.c **** * Return:
  46:.\Generated_Source\PSoC5/UART_PM.c **** *  None.
  47:.\Generated_Source\PSoC5/UART_PM.c **** *
  48:.\Generated_Source\PSoC5/UART_PM.c **** * Global Variables:
  49:.\Generated_Source\PSoC5/UART_PM.c **** *  UART_backup - modified when non-retention registers are saved.
  50:.\Generated_Source\PSoC5/UART_PM.c **** *
  51:.\Generated_Source\PSoC5/UART_PM.c **** * Reentrant:
  52:.\Generated_Source\PSoC5/UART_PM.c **** *  No.
  53:.\Generated_Source\PSoC5/UART_PM.c **** *
  54:.\Generated_Source\PSoC5/UART_PM.c **** * Side Effects:
  55:.\Generated_Source\PSoC5/UART_PM.c **** *  All nonretention registers except FIFO are saved to RAM
  56:.\Generated_Source\PSoC5/UART_PM.c **** *
  57:.\Generated_Source\PSoC5/UART_PM.c **** *******************************************************************************/
  58:.\Generated_Source\PSoC5/UART_PM.c **** void UART_SaveConfig(void)
  59:.\Generated_Source\PSoC5/UART_PM.c **** {
  27              		.loc 1 59 0
  28              		.cfi_startproc
  29              		@ args = 0, pretend = 0, frame = 0
  30              		@ frame_needed = 0, uses_anonymous_args = 0
  31              		@ link register save eliminated.
  32 0000 7047     		bx	lr
  33              		.cfi_endproc
  34              	.LFE0:
  35              		.size	UART_SaveConfig, .-UART_SaveConfig
  36              		.section	.text.UART_RestoreConfig,"ax",%progbits
  37              		.align	1
  38              		.global	UART_RestoreConfig
  39              		.thumb
  40              		.thumb_func
  41              		.type	UART_RestoreConfig, %function
  42              	UART_RestoreConfig:
  43              	.LFB1:
  60:.\Generated_Source\PSoC5/UART_PM.c ****     #if(UART_CONTROL_REG_REMOVED == 0u)
  61:.\Generated_Source\PSoC5/UART_PM.c ****         UART_backup.cr = UART_CONTROL_REG;
  62:.\Generated_Source\PSoC5/UART_PM.c ****     #endif /* End UART_CONTROL_REG_REMOVED */
  63:.\Generated_Source\PSoC5/UART_PM.c **** }
  64:.\Generated_Source\PSoC5/UART_PM.c **** 
  65:.\Generated_Source\PSoC5/UART_PM.c **** 
  66:.\Generated_Source\PSoC5/UART_PM.c **** /*******************************************************************************
  67:.\Generated_Source\PSoC5/UART_PM.c **** * Function Name: UART_RestoreConfig
  68:.\Generated_Source\PSoC5/UART_PM.c **** ********************************************************************************
  69:.\Generated_Source\PSoC5/UART_PM.c **** *
  70:.\Generated_Source\PSoC5/UART_PM.c **** * Summary:
  71:.\Generated_Source\PSoC5/UART_PM.c **** *  Restores the user configuration of nonretention registers.
ARM GAS  C:\Users\Eih3\AppData\Local\Temp\ccQnBLli.s 			page 3


  72:.\Generated_Source\PSoC5/UART_PM.c **** *
  73:.\Generated_Source\PSoC5/UART_PM.c **** * Parameters:
  74:.\Generated_Source\PSoC5/UART_PM.c **** *  None.
  75:.\Generated_Source\PSoC5/UART_PM.c **** *
  76:.\Generated_Source\PSoC5/UART_PM.c **** * Return:
  77:.\Generated_Source\PSoC5/UART_PM.c **** *  None.
  78:.\Generated_Source\PSoC5/UART_PM.c **** *
  79:.\Generated_Source\PSoC5/UART_PM.c **** * Global Variables:
  80:.\Generated_Source\PSoC5/UART_PM.c **** *  UART_backup - used when non-retention registers are restored.
  81:.\Generated_Source\PSoC5/UART_PM.c **** *
  82:.\Generated_Source\PSoC5/UART_PM.c **** * Reentrant:
  83:.\Generated_Source\PSoC5/UART_PM.c **** *  No.
  84:.\Generated_Source\PSoC5/UART_PM.c **** *
  85:.\Generated_Source\PSoC5/UART_PM.c **** * Side Effects:
  86:.\Generated_Source\PSoC5/UART_PM.c **** *  All nonretention registers except FIFO loaded from RAM. This function should
  87:.\Generated_Source\PSoC5/UART_PM.c **** *  be called only after UART_SaveConfig() is called, otherwise
  88:.\Generated_Source\PSoC5/UART_PM.c **** *  incorrect data will be loaded into the registers.
  89:.\Generated_Source\PSoC5/UART_PM.c **** *
  90:.\Generated_Source\PSoC5/UART_PM.c **** *******************************************************************************/
  91:.\Generated_Source\PSoC5/UART_PM.c **** void UART_RestoreConfig(void)
  92:.\Generated_Source\PSoC5/UART_PM.c **** {
  44              		.loc 1 92 0
  45              		.cfi_startproc
  46              		@ args = 0, pretend = 0, frame = 0
  47              		@ frame_needed = 0, uses_anonymous_args = 0
  48              		@ link register save eliminated.
  49 0000 7047     		bx	lr
  50              		.cfi_endproc
  51              	.LFE1:
  52              		.size	UART_RestoreConfig, .-UART_RestoreConfig
  53              		.section	.text.UART_Sleep,"ax",%progbits
  54              		.align	1
  55              		.global	UART_Sleep
  56              		.thumb
  57              		.thumb_func
  58              		.type	UART_Sleep, %function
  59              	UART_Sleep:
  60              	.LFB2:
  93:.\Generated_Source\PSoC5/UART_PM.c ****     #if(UART_CONTROL_REG_REMOVED == 0u)
  94:.\Generated_Source\PSoC5/UART_PM.c ****         UART_CONTROL_REG = UART_backup.cr;
  95:.\Generated_Source\PSoC5/UART_PM.c ****     #endif /* End UART_CONTROL_REG_REMOVED */
  96:.\Generated_Source\PSoC5/UART_PM.c **** }
  97:.\Generated_Source\PSoC5/UART_PM.c **** 
  98:.\Generated_Source\PSoC5/UART_PM.c **** 
  99:.\Generated_Source\PSoC5/UART_PM.c **** /*******************************************************************************
 100:.\Generated_Source\PSoC5/UART_PM.c **** * Function Name: UART_Sleep
 101:.\Generated_Source\PSoC5/UART_PM.c **** ********************************************************************************
 102:.\Generated_Source\PSoC5/UART_PM.c **** *
 103:.\Generated_Source\PSoC5/UART_PM.c **** * Summary:
 104:.\Generated_Source\PSoC5/UART_PM.c **** *  This is the preferred API to prepare the component for sleep. 
 105:.\Generated_Source\PSoC5/UART_PM.c **** *  The UART_Sleep() API saves the current component state. Then it
 106:.\Generated_Source\PSoC5/UART_PM.c **** *  calls the UART_Stop() function and calls 
 107:.\Generated_Source\PSoC5/UART_PM.c **** *  UART_SaveConfig() to save the hardware configuration.
 108:.\Generated_Source\PSoC5/UART_PM.c **** *  Call the UART_Sleep() function before calling the CyPmSleep() 
 109:.\Generated_Source\PSoC5/UART_PM.c **** *  or the CyPmHibernate() function. 
 110:.\Generated_Source\PSoC5/UART_PM.c **** *
 111:.\Generated_Source\PSoC5/UART_PM.c **** * Parameters:
ARM GAS  C:\Users\Eih3\AppData\Local\Temp\ccQnBLli.s 			page 4


 112:.\Generated_Source\PSoC5/UART_PM.c **** *  None.
 113:.\Generated_Source\PSoC5/UART_PM.c **** *
 114:.\Generated_Source\PSoC5/UART_PM.c **** * Return:
 115:.\Generated_Source\PSoC5/UART_PM.c **** *  None.
 116:.\Generated_Source\PSoC5/UART_PM.c **** *
 117:.\Generated_Source\PSoC5/UART_PM.c **** * Global Variables:
 118:.\Generated_Source\PSoC5/UART_PM.c **** *  UART_backup - modified when non-retention registers are saved.
 119:.\Generated_Source\PSoC5/UART_PM.c **** *
 120:.\Generated_Source\PSoC5/UART_PM.c **** * Reentrant:
 121:.\Generated_Source\PSoC5/UART_PM.c **** *  No.
 122:.\Generated_Source\PSoC5/UART_PM.c **** *
 123:.\Generated_Source\PSoC5/UART_PM.c **** *******************************************************************************/
 124:.\Generated_Source\PSoC5/UART_PM.c **** void UART_Sleep(void)
 125:.\Generated_Source\PSoC5/UART_PM.c **** {
  61              		.loc 1 125 0
  62              		.cfi_startproc
  63              		@ args = 0, pretend = 0, frame = 0
  64              		@ frame_needed = 0, uses_anonymous_args = 0
  65              		@ link register save eliminated.
 126:.\Generated_Source\PSoC5/UART_PM.c ****     #if(UART_RX_ENABLED || UART_HD_ENABLED)
 127:.\Generated_Source\PSoC5/UART_PM.c ****         if((UART_RXSTATUS_ACTL_REG  & UART_INT_ENABLE) != 0u)
  66              		.loc 1 127 0
  67 0000 064B     		ldr	r3, .L7
  68 0002 1A78     		ldrb	r2, [r3]	@ zero_extendqisi2
  69 0004 064B     		ldr	r3, .L7+4
  70 0006 02F01002 		and	r2, r2, #16
  71 000a 02F0FF01 		and	r1, r2, #255
  72 000e 12B1     		cbz	r2, .L4
 128:.\Generated_Source\PSoC5/UART_PM.c ****         {
 129:.\Generated_Source\PSoC5/UART_PM.c ****             UART_backup.enableState = 1u;
  73              		.loc 1 129 0
  74 0010 0122     		movs	r2, #1
  75 0012 1A70     		strb	r2, [r3]
  76 0014 00E0     		b	.L5
  77              	.L4:
 130:.\Generated_Source\PSoC5/UART_PM.c ****         }
 131:.\Generated_Source\PSoC5/UART_PM.c ****         else
 132:.\Generated_Source\PSoC5/UART_PM.c ****         {
 133:.\Generated_Source\PSoC5/UART_PM.c ****             UART_backup.enableState = 0u;
  78              		.loc 1 133 0
  79 0016 1970     		strb	r1, [r3]
  80              	.L5:
 134:.\Generated_Source\PSoC5/UART_PM.c ****         }
 135:.\Generated_Source\PSoC5/UART_PM.c ****     #else
 136:.\Generated_Source\PSoC5/UART_PM.c ****         if((UART_TXSTATUS_ACTL_REG  & UART_INT_ENABLE) !=0u)
 137:.\Generated_Source\PSoC5/UART_PM.c ****         {
 138:.\Generated_Source\PSoC5/UART_PM.c ****             UART_backup.enableState = 1u;
 139:.\Generated_Source\PSoC5/UART_PM.c ****         }
 140:.\Generated_Source\PSoC5/UART_PM.c ****         else
 141:.\Generated_Source\PSoC5/UART_PM.c ****         {
 142:.\Generated_Source\PSoC5/UART_PM.c ****             UART_backup.enableState = 0u;
 143:.\Generated_Source\PSoC5/UART_PM.c ****         }
 144:.\Generated_Source\PSoC5/UART_PM.c ****     #endif /* End UART_RX_ENABLED || UART_HD_ENABLED*/
 145:.\Generated_Source\PSoC5/UART_PM.c **** 
 146:.\Generated_Source\PSoC5/UART_PM.c ****     UART_Stop();
  81              		.loc 1 146 0
  82 0018 FFF7FEBF 		b	UART_Stop
ARM GAS  C:\Users\Eih3\AppData\Local\Temp\ccQnBLli.s 			page 5


  83              	.LVL0:
  84              	.L8:
  85              		.align	2
  86              	.L7:
  87 001c 94650040 		.word	1073767828
  88 0020 00000000 		.word	.LANCHOR0
  89              		.cfi_endproc
  90              	.LFE2:
  91              		.size	UART_Sleep, .-UART_Sleep
  92              		.section	.text.UART_Wakeup,"ax",%progbits
  93              		.align	1
  94              		.global	UART_Wakeup
  95              		.thumb
  96              		.thumb_func
  97              		.type	UART_Wakeup, %function
  98              	UART_Wakeup:
  99              	.LFB3:
 147:.\Generated_Source\PSoC5/UART_PM.c ****     UART_SaveConfig();
 148:.\Generated_Source\PSoC5/UART_PM.c **** }
 149:.\Generated_Source\PSoC5/UART_PM.c **** 
 150:.\Generated_Source\PSoC5/UART_PM.c **** 
 151:.\Generated_Source\PSoC5/UART_PM.c **** /*******************************************************************************
 152:.\Generated_Source\PSoC5/UART_PM.c **** * Function Name: UART_Wakeup
 153:.\Generated_Source\PSoC5/UART_PM.c **** ********************************************************************************
 154:.\Generated_Source\PSoC5/UART_PM.c **** *
 155:.\Generated_Source\PSoC5/UART_PM.c **** * Summary:
 156:.\Generated_Source\PSoC5/UART_PM.c **** *  This is the preferred API to restore the component to the state when 
 157:.\Generated_Source\PSoC5/UART_PM.c **** *  UART_Sleep() was called. The UART_Wakeup() function
 158:.\Generated_Source\PSoC5/UART_PM.c **** *  calls the UART_RestoreConfig() function to restore the 
 159:.\Generated_Source\PSoC5/UART_PM.c **** *  configuration. If the component was enabled before the 
 160:.\Generated_Source\PSoC5/UART_PM.c **** *  UART_Sleep() function was called, the UART_Wakeup()
 161:.\Generated_Source\PSoC5/UART_PM.c **** *  function will also re-enable the component.
 162:.\Generated_Source\PSoC5/UART_PM.c **** *
 163:.\Generated_Source\PSoC5/UART_PM.c **** * Parameters:
 164:.\Generated_Source\PSoC5/UART_PM.c **** *  None.
 165:.\Generated_Source\PSoC5/UART_PM.c **** *
 166:.\Generated_Source\PSoC5/UART_PM.c **** * Return:
 167:.\Generated_Source\PSoC5/UART_PM.c **** *  None.
 168:.\Generated_Source\PSoC5/UART_PM.c **** *
 169:.\Generated_Source\PSoC5/UART_PM.c **** * Global Variables:
 170:.\Generated_Source\PSoC5/UART_PM.c **** *  UART_backup - used when non-retention registers are restored.
 171:.\Generated_Source\PSoC5/UART_PM.c **** *
 172:.\Generated_Source\PSoC5/UART_PM.c **** * Reentrant:
 173:.\Generated_Source\PSoC5/UART_PM.c **** *  No.
 174:.\Generated_Source\PSoC5/UART_PM.c **** *
 175:.\Generated_Source\PSoC5/UART_PM.c **** *******************************************************************************/
 176:.\Generated_Source\PSoC5/UART_PM.c **** void UART_Wakeup(void)
 177:.\Generated_Source\PSoC5/UART_PM.c **** {
 100              		.loc 1 177 0
 101              		.cfi_startproc
 102              		@ args = 0, pretend = 0, frame = 0
 103              		@ frame_needed = 0, uses_anonymous_args = 0
 104 0000 08B5     		push	{r3, lr}
 105              		.cfi_def_cfa_offset 8
 106              		.cfi_offset 3, -8
 107              		.cfi_offset 14, -4
 178:.\Generated_Source\PSoC5/UART_PM.c ****     UART_RestoreConfig();
ARM GAS  C:\Users\Eih3\AppData\Local\Temp\ccQnBLli.s 			page 6


 179:.\Generated_Source\PSoC5/UART_PM.c ****     #if( (UART_RX_ENABLED) || (UART_HD_ENABLED) )
 180:.\Generated_Source\PSoC5/UART_PM.c ****         UART_ClearRxBuffer();
 108              		.loc 1 180 0
 109 0002 FFF7FEFF 		bl	UART_ClearRxBuffer
 110              	.LVL1:
 181:.\Generated_Source\PSoC5/UART_PM.c ****     #endif /* End (UART_RX_ENABLED) || (UART_HD_ENABLED) */
 182:.\Generated_Source\PSoC5/UART_PM.c ****     #if(UART_TX_ENABLED || UART_HD_ENABLED)
 183:.\Generated_Source\PSoC5/UART_PM.c ****         UART_ClearTxBuffer();
 111              		.loc 1 183 0
 112 0006 FFF7FEFF 		bl	UART_ClearTxBuffer
 113              	.LVL2:
 184:.\Generated_Source\PSoC5/UART_PM.c ****     #endif /* End UART_TX_ENABLED || UART_HD_ENABLED */
 185:.\Generated_Source\PSoC5/UART_PM.c **** 
 186:.\Generated_Source\PSoC5/UART_PM.c ****     if(UART_backup.enableState != 0u)
 114              		.loc 1 186 0
 115 000a 044B     		ldr	r3, .L11
 116 000c 1B78     		ldrb	r3, [r3]	@ zero_extendqisi2
 117 000e 1BB1     		cbz	r3, .L9
 187:.\Generated_Source\PSoC5/UART_PM.c ****     {
 188:.\Generated_Source\PSoC5/UART_PM.c ****         UART_Enable();
 189:.\Generated_Source\PSoC5/UART_PM.c ****     }
 190:.\Generated_Source\PSoC5/UART_PM.c **** }
 118              		.loc 1 190 0
 119 0010 BDE80840 		pop	{r3, lr}
 188:.\Generated_Source\PSoC5/UART_PM.c ****         UART_Enable();
 120              		.loc 1 188 0
 121 0014 FFF7FEBF 		b	UART_Enable
 122              	.LVL3:
 123              	.L9:
 124 0018 08BD     		pop	{r3, pc}
 125              	.L12:
 126 001a 00BF     		.align	2
 127              	.L11:
 128 001c 00000000 		.word	.LANCHOR0
 129              		.cfi_endproc
 130              	.LFE3:
 131              		.size	UART_Wakeup, .-UART_Wakeup
 132              		.bss
 133              		.set	.LANCHOR0,. + 0
 134              		.type	UART_backup, %object
 135              		.size	UART_backup, 1
 136              	UART_backup:
 137 0000 00       		.space	1
 138              		.text
 139              	.Letext0:
 140              		.file 2 ".\\Generated_Source\\PSoC5\\cytypes.h"
 141              		.file 3 ".\\Generated_Source\\PSoC5\\UART.h"