ARM GAS  C:\Users\Eih3\AppData\Local\Temp\ccBXQ1QT.s 			page 1


   1              		.syntax unified
   2              		.cpu cortex-m3
   3              		.fpu softvfp
   4              		.eabi_attribute 20, 1
   5              		.eabi_attribute 21, 1
   6              		.eabi_attribute 23, 3
   7              		.eabi_attribute 24, 1
   8              		.eabi_attribute 25, 1
   9              		.eabi_attribute 26, 1
  10              		.eabi_attribute 30, 6
  11              		.eabi_attribute 34, 1
  12              		.eabi_attribute 18, 4
  13              		.thumb
  14              		.file	"etuve.c"
  15              		.text
  16              	.Ltext0:
  17              		.cfi_sections	.debug_frame
  18              		.comm	i,1,1
  19              		.global	adresse
  20              		.bss
  21              		.align	2
  22              		.type	adresse, %object
  23              		.size	adresse, 2
  24              	adresse:
  25 0000 0000     		.space	2
  26              		.global	dataBuffer
  27 0002 0000     		.align	2
  28              		.type	dataBuffer, %object
  29              		.size	dataBuffer, 15
  30              	dataBuffer:
  31 0004 00000000 		.space	15
  31      00000000 
  31      00000000 
  31      000000
  32              		.comm	writeData,15,4
  33              		.comm	readData,15,4
  34 0013 00       		.section	.text.Config,"ax",%progbits
  35              		.align	2
  36              		.global	Config
  37              		.thumb
  38              		.thumb_func
  39              		.type	Config, %function
  40              	Config:
  41              	.LFB56:
  42              		.file 1 ".\\etuve.c"
   1:.\etuve.c     **** /****
   2:.\etuve.c     ****  * Fonctions Etuve
   3:.\etuve.c     ****  ***/
   4:.\etuve.c     **** 
   5:.\etuve.c     **** /**** Déclarations & Directives ****/
   6:.\etuve.c     **** #include <project.h>
   7:.\etuve.c     **** #include "etuve.h"
   8:.\etuve.c     **** 
   9:.\etuve.c     **** /**** Configurations ****/
  10:.\etuve.c     **** void Config()
  11:.\etuve.c     **** {
  43              		.loc 1 11 0
ARM GAS  C:\Users\Eih3\AppData\Local\Temp\ccBXQ1QT.s 			page 2


  44              		.cfi_startproc
  45              		@ args = 0, pretend = 0, frame = 0
  46              		@ frame_needed = 1, uses_anonymous_args = 0
  47              		@ link register save eliminated.
  48 0000 80B4     		push	{r7}
  49              		.cfi_def_cfa_offset 4
  50              		.cfi_offset 7, -4
  51 0002 00AF     		add	r7, sp, #0
  52              		.cfi_def_cfa_register 7
  12:.\etuve.c     **** }
  53              		.loc 1 12 0
  54 0004 BD46     		mov	sp, r7
  55              		@ sp needed
  56 0006 5DF8047B 		ldr	r7, [sp], #4
  57 000a 7047     		bx	lr
  58              		.cfi_endproc
  59              	.LFE56:
  60              		.size	Config, .-Config
  61              		.section	.text.Init,"ax",%progbits
  62              		.align	2
  63              		.global	Init
  64              		.thumb
  65              		.thumb_func
  66              		.type	Init, %function
  67              	Init:
  68              	.LFB57:
  13:.\etuve.c     **** 
  14:.\etuve.c     **** /**** Initialisations ****/
  15:.\etuve.c     **** void Init()
  16:.\etuve.c     **** {
  69              		.loc 1 16 0
  70              		.cfi_startproc
  71              		@ args = 0, pretend = 0, frame = 0
  72              		@ frame_needed = 1, uses_anonymous_args = 0
  73 0000 80B5     		push	{r7, lr}
  74              		.cfi_def_cfa_offset 8
  75              		.cfi_offset 7, -8
  76              		.cfi_offset 14, -4
  77 0002 00AF     		add	r7, sp, #0
  78              		.cfi_def_cfa_register 7
  17:.\etuve.c     ****     Init_Interruptions();
  79              		.loc 1 17 0
  80 0004 FFF7FEFF 		bl	Init_Interruptions
  18:.\etuve.c     ****     
  19:.\etuve.c     ****     /**temporaire**/
  20:.\etuve.c     ****     LCD_Start();
  81              		.loc 1 20 0
  82 0008 FFF7FEFF 		bl	LCD_Start
  21:.\etuve.c     **** }
  83              		.loc 1 21 0
  84 000c 80BD     		pop	{r7, pc}
  85              		.cfi_endproc
  86              	.LFE57:
  87              		.size	Init, .-Init
  88 000e 00BF     		.section	.text.Init_Interruptions,"ax",%progbits
  89              		.align	2
  90              		.global	Init_Interruptions
ARM GAS  C:\Users\Eih3\AppData\Local\Temp\ccBXQ1QT.s 			page 3


  91              		.thumb
  92              		.thumb_func
  93              		.type	Init_Interruptions, %function
  94              	Init_Interruptions:
  95              	.LFB58:
  22:.\etuve.c     **** 
  23:.\etuve.c     **** /**** Initialisation Interruptions ****/
  24:.\etuve.c     **** void Init_Interruptions()
  25:.\etuve.c     **** {
  96              		.loc 1 25 0
  97              		.cfi_startproc
  98              		@ args = 0, pretend = 0, frame = 0
  99              		@ frame_needed = 1, uses_anonymous_args = 0
 100 0000 80B5     		push	{r7, lr}
 101              		.cfi_def_cfa_offset 8
 102              		.cfi_offset 7, -8
 103              		.cfi_offset 14, -4
 104 0002 00AF     		add	r7, sp, #0
 105              		.cfi_def_cfa_register 7
  26:.\etuve.c     ****     CYGlobalIntEnable;
 106              		.loc 1 26 0
 107              	@ 26 ".\etuve.c" 1
 108 0004 62B6     		CPSIE   i
 109              	@ 0 "" 2
  27:.\etuve.c     ****     I2C_Start();
 110              		.loc 1 27 0
 111              		.thumb
 112 0006 FFF7FEFF 		bl	I2C_Start
  28:.\etuve.c     ****     I2C_MasterClearStatus();
 113              		.loc 1 28 0
 114 000a FFF7FEFF 		bl	I2C_MasterClearStatus
  29:.\etuve.c     **** }
 115              		.loc 1 29 0
 116 000e 80BD     		pop	{r7, pc}
 117              		.cfi_endproc
 118              	.LFE58:
 119              		.size	Init_Interruptions, .-Init_Interruptions
 120              		.section	.text.fonctionTest,"ax",%progbits
 121              		.align	2
 122              		.global	fonctionTest
 123              		.thumb
 124              		.thumb_func
 125              		.type	fonctionTest, %function
 126              	fonctionTest:
 127              	.LFB59:
  30:.\etuve.c     **** 
  31:.\etuve.c     **** /**** Fonction Test Divers ****/
  32:.\etuve.c     **** void fonctionTest()
  33:.\etuve.c     **** {    
 128              		.loc 1 33 0
 129              		.cfi_startproc
 130              		@ args = 0, pretend = 0, frame = 0
 131              		@ frame_needed = 1, uses_anonymous_args = 0
 132 0000 80B5     		push	{r7, lr}
 133              		.cfi_def_cfa_offset 8
 134              		.cfi_offset 7, -8
 135              		.cfi_offset 14, -4
ARM GAS  C:\Users\Eih3\AppData\Local\Temp\ccBXQ1QT.s 			page 4


 136 0002 00AF     		add	r7, sp, #0
 137              		.cfi_def_cfa_register 7
  34:.\etuve.c     ****     LCD_Position(0, 0);   
 138              		.loc 1 34 0
 139 0004 0020     		movs	r0, #0
 140 0006 0021     		movs	r1, #0
 141 0008 FFF7FEFF 		bl	LCD_Position
  35:.\etuve.c     ****     
  36:.\etuve.c     ****     i = 0;     
 142              		.loc 1 36 0
 143 000c 154B     		ldr	r3, .L6
 144 000e 0022     		movs	r2, #0
 145 0010 1A70     		strb	r2, [r3]
  37:.\etuve.c     ****         
  38:.\etuve.c     ****     writeData[0] = 0x52; //R
 146              		.loc 1 38 0
 147 0012 154B     		ldr	r3, .L6+4
 148 0014 5222     		movs	r2, #82
 149 0016 1A70     		strb	r2, [r3]
  39:.\etuve.c     ****     writeData[1] = 0x41; //A
 150              		.loc 1 39 0
 151 0018 134B     		ldr	r3, .L6+4
 152 001a 4122     		movs	r2, #65
 153 001c 5A70     		strb	r2, [r3, #1]
  40:.\etuve.c     ****     writeData[2] = 0x47; //G
 154              		.loc 1 40 0
 155 001e 124B     		ldr	r3, .L6+4
 156 0020 4722     		movs	r2, #71
 157 0022 9A70     		strb	r2, [r3, #2]
  41:.\etuve.c     ****     writeData[3] = 0x54; //T
 158              		.loc 1 41 0
 159 0024 104B     		ldr	r3, .L6+4
 160 0026 5422     		movs	r2, #84
 161 0028 DA70     		strb	r2, [r3, #3]
  42:.\etuve.c     ****     
  43:.\etuve.c     ****     /** Exemple Ecriture I2C **/
  44:.\etuve.c     ****     EcritureEEPROM(0, writeData, sizeof(writeData));    
 162              		.loc 1 44 0
 163 002a 0020     		movs	r0, #0
 164 002c 0E49     		ldr	r1, .L6+4
 165 002e 0F22     		movs	r2, #15
 166 0030 FFF7FEFF 		bl	EcritureEEPROM
  45:.\etuve.c     ****     
  46:.\etuve.c     ****     /** Exemple Lecture I2C **/ 
  47:.\etuve.c     ****     LectureEEPROM(0, readData, sizeof(writeData));
 167              		.loc 1 47 0
 168 0034 0020     		movs	r0, #0
 169 0036 0D49     		ldr	r1, .L6+8
 170 0038 0F22     		movs	r2, #15
 171 003a FFF7FEFF 		bl	LectureEEPROM
 172              	.L5:
  48:.\etuve.c     ****     
  49:.\etuve.c     ****     do { LCD_PutChar(readData[i]); i++; } while (i < sizeof(writeData)); 
 173              		.loc 1 49 0 discriminator 1
 174 003e 094B     		ldr	r3, .L6
 175 0040 1B78     		ldrb	r3, [r3]	@ zero_extendqisi2
 176 0042 0A4A     		ldr	r2, .L6+8
ARM GAS  C:\Users\Eih3\AppData\Local\Temp\ccBXQ1QT.s 			page 5


 177 0044 D35C     		ldrb	r3, [r2, r3]	@ zero_extendqisi2
 178 0046 1846     		mov	r0, r3
 179 0048 FFF7FEFF 		bl	LCD_PutChar
 180 004c 054B     		ldr	r3, .L6
 181 004e 1B78     		ldrb	r3, [r3]	@ zero_extendqisi2
 182 0050 0133     		adds	r3, r3, #1
 183 0052 DAB2     		uxtb	r2, r3
 184 0054 034B     		ldr	r3, .L6
 185 0056 1A70     		strb	r2, [r3]
 186 0058 024B     		ldr	r3, .L6
 187 005a 1B78     		ldrb	r3, [r3]	@ zero_extendqisi2
 188 005c 0E2B     		cmp	r3, #14
 189 005e EED9     		bls	.L5
  50:.\etuve.c     **** }
 190              		.loc 1 50 0
 191 0060 80BD     		pop	{r7, pc}
 192              	.L7:
 193 0062 00BF     		.align	2
 194              	.L6:
 195 0064 00000000 		.word	i
 196 0068 00000000 		.word	writeData
 197 006c 00000000 		.word	readData
 198              		.cfi_endproc
 199              	.LFE59:
 200              		.size	fonctionTest, .-fonctionTest
 201              		.text
 202              	.Letext0:
 203              		.file 2 "c:\\program files (x86)\\cypress\\psoc creator\\3.1\\psoc creator\\import\\gnu_cs\\arm\\4
 204              		.file 3 "c:\\program files (x86)\\cypress\\psoc creator\\3.1\\psoc creator\\import\\gnu_cs\\arm\\4
 205              		.file 4 ".\\Generated_Source\\PSoC5/cytypes.h"
 206              		.file 5 ".\\Generated_Source\\PSoC5/core_cm3.h"
 207              		.file 6 ".\\etuve.h"